
WSNDemo.elf:     file format elf32-avr

Sections:
Idx Name          Size      VMA       LMA       File off  Algn
  0 .data         000000b6  00800200  00002548  000025dc  2**0
                  CONTENTS, ALLOC, LOAD, DATA
  1 .text         00002548  00000000  00000000  00000094  2**1
                  CONTENTS, ALLOC, LOAD, READONLY, CODE
  2 .bss          0000165b  008002b6  008002b6  00002692  2**0
                  ALLOC
  3 .stab         00000ae0  00000000  00000000  00002694  2**2
                  CONTENTS, READONLY, DEBUGGING
  4 .stabstr      00000213  00000000  00000000  00003174  2**0
                  CONTENTS, READONLY, DEBUGGING
  5 .debug_aranges 00000620  00000000  00000000  00003388  2**3
                  CONTENTS, READONLY, DEBUGGING
  6 .debug_info   00005f47  00000000  00000000  000039a8  2**0
                  CONTENTS, READONLY, DEBUGGING
  7 .debug_abbrev 00001f3f  00000000  00000000  000098ef  2**0
                  CONTENTS, READONLY, DEBUGGING
  8 .debug_line   0000489d  00000000  00000000  0000b82e  2**0
                  CONTENTS, READONLY, DEBUGGING
  9 .debug_frame  00000c70  00000000  00000000  000100cc  2**2
                  CONTENTS, READONLY, DEBUGGING
 10 .debug_str    00001cf4  00000000  00000000  00010d3c  2**0
                  CONTENTS, READONLY, DEBUGGING
 11 .debug_loc    0000227d  00000000  00000000  00012a30  2**0
                  CONTENTS, READONLY, DEBUGGING
 12 .debug_macinfo 001397c3  00000000  00000000  00014cad  2**0
                  CONTENTS, READONLY, DEBUGGING
 13 .debug_ranges 00000520  00000000  00000000  0014e470  2**0
                  CONTENTS, READONLY, DEBUGGING

Disassembly of section .text:

00000000 <__vectors>:
       0:	0c 94 90 00 	jmp	0x120	; 0x120 <__ctors_end>
       4:	0c 94 af 00 	jmp	0x15e	; 0x15e <__bad_interrupt>
       8:	0c 94 af 00 	jmp	0x15e	; 0x15e <__bad_interrupt>
       c:	0c 94 af 00 	jmp	0x15e	; 0x15e <__bad_interrupt>
      10:	0c 94 af 00 	jmp	0x15e	; 0x15e <__bad_interrupt>
      14:	0c 94 af 00 	jmp	0x15e	; 0x15e <__bad_interrupt>
      18:	0c 94 af 00 	jmp	0x15e	; 0x15e <__bad_interrupt>
      1c:	0c 94 af 00 	jmp	0x15e	; 0x15e <__bad_interrupt>
      20:	0c 94 af 00 	jmp	0x15e	; 0x15e <__bad_interrupt>
      24:	0c 94 af 00 	jmp	0x15e	; 0x15e <__bad_interrupt>
      28:	0c 94 af 00 	jmp	0x15e	; 0x15e <__bad_interrupt>
      2c:	0c 94 af 00 	jmp	0x15e	; 0x15e <__bad_interrupt>
      30:	0c 94 af 00 	jmp	0x15e	; 0x15e <__bad_interrupt>
      34:	0c 94 4e 03 	jmp	0x69c	; 0x69c <__vector_13>
      38:	0c 94 af 00 	jmp	0x15e	; 0x15e <__bad_interrupt>
      3c:	0c 94 3e 02 	jmp	0x47c	; 0x47c <__vector_15>
      40:	0c 94 af 00 	jmp	0x15e	; 0x15e <__bad_interrupt>
      44:	0c 94 af 00 	jmp	0x15e	; 0x15e <__bad_interrupt>
      48:	0c 94 af 00 	jmp	0x15e	; 0x15e <__bad_interrupt>
      4c:	0c 94 af 00 	jmp	0x15e	; 0x15e <__bad_interrupt>
      50:	0c 94 af 00 	jmp	0x15e	; 0x15e <__bad_interrupt>
      54:	0c 94 af 00 	jmp	0x15e	; 0x15e <__bad_interrupt>
      58:	0c 94 af 00 	jmp	0x15e	; 0x15e <__bad_interrupt>
      5c:	0c 94 af 00 	jmp	0x15e	; 0x15e <__bad_interrupt>
      60:	0c 94 af 00 	jmp	0x15e	; 0x15e <__bad_interrupt>
      64:	0c 94 c5 04 	jmp	0x98a	; 0x98a <__vector_25>
      68:	0c 94 a9 04 	jmp	0x952	; 0x952 <__vector_26>
      6c:	0c 94 af 00 	jmp	0x15e	; 0x15e <__bad_interrupt>
      70:	0c 94 af 00 	jmp	0x15e	; 0x15e <__bad_interrupt>
      74:	0c 94 af 00 	jmp	0x15e	; 0x15e <__bad_interrupt>
      78:	0c 94 af 00 	jmp	0x15e	; 0x15e <__bad_interrupt>
      7c:	0c 94 af 00 	jmp	0x15e	; 0x15e <__bad_interrupt>
      80:	0c 94 af 00 	jmp	0x15e	; 0x15e <__bad_interrupt>
      84:	0c 94 af 00 	jmp	0x15e	; 0x15e <__bad_interrupt>
      88:	0c 94 af 00 	jmp	0x15e	; 0x15e <__bad_interrupt>
      8c:	0c 94 af 00 	jmp	0x15e	; 0x15e <__bad_interrupt>
      90:	0c 94 af 00 	jmp	0x15e	; 0x15e <__bad_interrupt>
      94:	0c 94 af 00 	jmp	0x15e	; 0x15e <__bad_interrupt>
      98:	0c 94 af 00 	jmp	0x15e	; 0x15e <__bad_interrupt>
      9c:	0c 94 af 00 	jmp	0x15e	; 0x15e <__bad_interrupt>
      a0:	0c 94 af 00 	jmp	0x15e	; 0x15e <__bad_interrupt>
      a4:	0c 94 af 00 	jmp	0x15e	; 0x15e <__bad_interrupt>
      a8:	0c 94 a6 03 	jmp	0x74c	; 0x74c <__vector_42>
      ac:	0c 94 b7 03 	jmp	0x76e	; 0x76e <__vector_43>
      b0:	0c 94 af 00 	jmp	0x15e	; 0x15e <__bad_interrupt>
      b4:	0c 94 af 00 	jmp	0x15e	; 0x15e <__bad_interrupt>
      b8:	0c 94 af 00 	jmp	0x15e	; 0x15e <__bad_interrupt>
      bc:	0c 94 af 00 	jmp	0x15e	; 0x15e <__bad_interrupt>
      c0:	0c 94 af 00 	jmp	0x15e	; 0x15e <__bad_interrupt>
      c4:	0c 94 af 00 	jmp	0x15e	; 0x15e <__bad_interrupt>
      c8:	0c 94 af 00 	jmp	0x15e	; 0x15e <__bad_interrupt>
      cc:	0c 94 af 00 	jmp	0x15e	; 0x15e <__bad_interrupt>
      d0:	0c 94 af 00 	jmp	0x15e	; 0x15e <__bad_interrupt>
      d4:	0c 94 af 00 	jmp	0x15e	; 0x15e <__bad_interrupt>
      d8:	0c 94 af 00 	jmp	0x15e	; 0x15e <__bad_interrupt>
      dc:	0c 94 af 00 	jmp	0x15e	; 0x15e <__bad_interrupt>
      e0:	0c 94 af 00 	jmp	0x15e	; 0x15e <__bad_interrupt>
      e4:	0c 94 af 00 	jmp	0x15e	; 0x15e <__bad_interrupt>
      e8:	0c 94 af 00 	jmp	0x15e	; 0x15e <__bad_interrupt>
      ec:	0c 94 af 00 	jmp	0x15e	; 0x15e <__bad_interrupt>
      f0:	0c 94 50 0d 	jmp	0x1aa0	; 0x1aa0 <__vector_60>
      f4:	0c 94 af 00 	jmp	0x15e	; 0x15e <__bad_interrupt>
      f8:	0c 94 af 00 	jmp	0x15e	; 0x15e <__bad_interrupt>
      fc:	0c 94 18 0d 	jmp	0x1a30	; 0x1a30 <__vector_63>
     100:	0c 94 af 00 	jmp	0x15e	; 0x15e <__bad_interrupt>
     104:	0c 94 af 00 	jmp	0x15e	; 0x15e <__bad_interrupt>
     108:	0c 94 af 00 	jmp	0x15e	; 0x15e <__bad_interrupt>
     10c:	0c 94 af 00 	jmp	0x15e	; 0x15e <__bad_interrupt>
     110:	0c 94 af 00 	jmp	0x15e	; 0x15e <__bad_interrupt>
     114:	0c 94 af 00 	jmp	0x15e	; 0x15e <__bad_interrupt>
     118:	0c 94 af 00 	jmp	0x15e	; 0x15e <__bad_interrupt>
     11c:	0c 94 af 00 	jmp	0x15e	; 0x15e <__bad_interrupt>

00000120 <__ctors_end>:
     120:	11 24       	eor	r1, r1
     122:	1f be       	out	0x3f, r1	; 63
     124:	cf ef       	ldi	r28, 0xFF	; 255
     126:	d1 e4       	ldi	r29, 0x41	; 65
     128:	de bf       	out	0x3e, r29	; 62
     12a:	cd bf       	out	0x3d, r28	; 61

0000012c <__do_copy_data>:
     12c:	12 e0       	ldi	r17, 0x02	; 2
     12e:	a0 e0       	ldi	r26, 0x00	; 0
     130:	b2 e0       	ldi	r27, 0x02	; 2
     132:	e8 e4       	ldi	r30, 0x48	; 72
     134:	f5 e2       	ldi	r31, 0x25	; 37
     136:	00 e0       	ldi	r16, 0x00	; 0
     138:	0b bf       	out	0x3b, r16	; 59
     13a:	02 c0       	rjmp	.+4      	; 0x140 <__do_copy_data+0x14>
     13c:	07 90       	elpm	r0, Z+
     13e:	0d 92       	st	X+, r0
     140:	a6 3b       	cpi	r26, 0xB6	; 182
     142:	b1 07       	cpc	r27, r17
     144:	d9 f7       	brne	.-10     	; 0x13c <__do_copy_data+0x10>

00000146 <__do_clear_bss>:
     146:	19 e1       	ldi	r17, 0x19	; 25
     148:	a6 eb       	ldi	r26, 0xB6	; 182
     14a:	b2 e0       	ldi	r27, 0x02	; 2
     14c:	01 c0       	rjmp	.+2      	; 0x150 <.do_clear_bss_start>

0000014e <.do_clear_bss_loop>:
     14e:	1d 92       	st	X+, r1

00000150 <.do_clear_bss_start>:
     150:	a1 31       	cpi	r26, 0x11	; 17
     152:	b1 07       	cpc	r27, r17
     154:	e1 f7       	brne	.-8      	; 0x14e <.do_clear_bss_loop>
     156:	0e 94 df 0f 	call	0x1fbe	; 0x1fbe <main>
     15a:	0c 94 a2 12 	jmp	0x2544	; 0x2544 <_exit>

0000015e <__bad_interrupt>:
     15e:	0c 94 00 00 	jmp	0	; 0x0 <__vectors>

00000162 <getCommandArgsLenght>:
*/
#include "command.h"

uint8_t getCommandArgsLenght(uint8_t* opcode)
{
	switch (*opcode)
     162:	fc 01       	movw	r30, r24
     164:	80 81       	ld	r24, Z
     166:	82 30       	cpi	r24, 0x02	; 2
     168:	91 f0       	breq	.+36     	; 0x18e <getCommandArgsLenght+0x2c>
     16a:	83 30       	cpi	r24, 0x03	; 3
     16c:	18 f4       	brcc	.+6      	; 0x174 <getCommandArgsLenght+0x12>
     16e:	81 30       	cpi	r24, 0x01	; 1
     170:	61 f4       	brne	.+24     	; 0x18a <getCommandArgsLenght+0x28>
     172:	05 c0       	rjmp	.+10     	; 0x17e <getCommandArgsLenght+0x1c>
     174:	83 30       	cpi	r24, 0x03	; 3
     176:	29 f0       	breq	.+10     	; 0x182 <getCommandArgsLenght+0x20>
     178:	8f 3f       	cpi	r24, 0xFF	; 255
     17a:	39 f4       	brne	.+14     	; 0x18a <getCommandArgsLenght+0x28>
     17c:	04 c0       	rjmp	.+8      	; 0x186 <getCommandArgsLenght+0x24>
	{
		case DIGITAL_READ_OPCODE:
			return DIGITAL_READ_LENGHT;
     17e:	81 e0       	ldi	r24, 0x01	; 1
     180:	08 95       	ret
		case DIGITAL_WRITE_OPCODE:
			return DIGITAL_WRITE_LENGHT;
			break;
		
		case DIGITAL_SWITCH_OPCODE:
			return DIGITAL_SWITCH_LENGHT;
     182:	82 e0       	ldi	r24, 0x02	; 2
     184:	08 95       	ret
			break;
		
		case 0xFF: //REPRODUCIR BACHATA
			return 4;
     186:	84 e0       	ldi	r24, 0x04	; 4
     188:	08 95       	ret
			break;
		
		default:
			return 0xFF;
     18a:	8f ef       	ldi	r24, 0xFF	; 255
     18c:	08 95       	ret
		case DIGITAL_READ_OPCODE:
			return DIGITAL_READ_LENGHT;
			break;
		
		case DIGITAL_WRITE_OPCODE:
			return DIGITAL_WRITE_LENGHT;
     18e:	83 e0       	ldi	r24, 0x03	; 3
		
		default:
			return 0xFF;
			break;
	}
     190:	08 95       	ret

00000192 <RF_Send_Event>:

#include "radio.h"

uint16_t eoeoe;
void RF_Send_Event(EVENT_HEADER_t* eventHeader)
{
     192:	df 92       	push	r13
     194:	ef 92       	push	r14
     196:	ff 92       	push	r15
     198:	0f 93       	push	r16
     19a:	1f 93       	push	r17
     19c:	cf 93       	push	r28
     19e:	df 93       	push	r29
     1a0:	00 d0       	rcall	.+0      	; 0x1a2 <RF_Send_Event+0x10>
     1a2:	cd b7       	in	r28, 0x3d	; 61
     1a4:	de b7       	in	r29, 0x3e	; 62
     1a6:	9a 83       	std	Y+2, r25	; 0x02
     1a8:	89 83       	std	Y+1, r24	; 0x01
	//For testing purposes just send throw UART port
	HAL_UartPrint("RF Send Event Request: ");
     1aa:	80 e0       	ldi	r24, 0x00	; 0
     1ac:	92 e0       	ldi	r25, 0x02	; 2
     1ae:	0e 94 4c 04 	call	0x898	; 0x898 <HAL_UartPrint>
	numWrite(eventHeader->destinationAddress);
     1b2:	e9 81       	ldd	r30, Y+1	; 0x01
     1b4:	fa 81       	ldd	r31, Y+2	; 0x02
     1b6:	80 81       	ld	r24, Z
     1b8:	91 81       	ldd	r25, Z+1	; 0x01
     1ba:	0e 94 98 01 	call	0x330	; 0x330 <numWrite>
	HAL_UartPrint("\t");
     1be:	88 e1       	ldi	r24, 0x18	; 24
     1c0:	92 e0       	ldi	r25, 0x02	; 2
     1c2:	0e 94 4c 04 	call	0x898	; 0x898 <HAL_UartPrint>
	numWrite(eventHeader->operation);
     1c6:	e9 81       	ldd	r30, Y+1	; 0x01
     1c8:	fa 81       	ldd	r31, Y+2	; 0x02
     1ca:	82 81       	ldd	r24, Z+2	; 0x02
     1cc:	90 e0       	ldi	r25, 0x00	; 0
     1ce:	0e 94 98 01 	call	0x330	; 0x330 <numWrite>
	HAL_UartPrint("\t");
     1d2:	88 e1       	ldi	r24, 0x18	; 24
     1d4:	92 e0       	ldi	r25, 0x02	; 2
     1d6:	0e 94 4c 04 	call	0x898	; 0x898 <HAL_UartPrint>
	
	uint8_t length = getCommandArgsLenght(&eventHeader->operation);
     1da:	89 81       	ldd	r24, Y+1	; 0x01
     1dc:	9a 81       	ldd	r25, Y+2	; 0x02
     1de:	02 96       	adiw	r24, 0x02	; 2
     1e0:	0e 94 b1 00 	call	0x162	; 0x162 <getCommandArgsLenght>
     1e4:	d8 2e       	mov	r13, r24
	for (uint8_t i = 0; i < length; i++)
     1e6:	03 e0       	ldi	r16, 0x03	; 3
     1e8:	10 e0       	ldi	r17, 0x00	; 0
	{
		eoeoe = &eventHeader;
     1ea:	7e 01       	movw	r14, r28
     1ec:	08 94       	sec
     1ee:	e1 1c       	adc	r14, r1
     1f0:	f1 1c       	adc	r15, r1
	HAL_UartPrint("\t");
	numWrite(eventHeader->operation);
	HAL_UartPrint("\t");
	
	uint8_t length = getCommandArgsLenght(&eventHeader->operation);
	for (uint8_t i = 0; i < length; i++)
     1f2:	0e c0       	rjmp	.+28     	; 0x210 <RF_Send_Event+0x7e>
	{
		eoeoe = &eventHeader;
     1f4:	f0 92 f6 08 	sts	0x08F6, r15
     1f8:	e0 92 f5 08 	sts	0x08F5, r14
		numWrite(*((uint8_t*)eventHeader + 3 + i));
     1fc:	e9 81       	ldd	r30, Y+1	; 0x01
     1fe:	fa 81       	ldd	r31, Y+2	; 0x02
     200:	e0 0f       	add	r30, r16
     202:	f1 1f       	adc	r31, r17
     204:	80 81       	ld	r24, Z
     206:	90 e0       	ldi	r25, 0x00	; 0
     208:	0e 94 98 01 	call	0x330	; 0x330 <numWrite>
     20c:	0f 5f       	subi	r16, 0xFF	; 255
     20e:	1f 4f       	sbci	r17, 0xFF	; 255
	HAL_UartPrint("\t");
	numWrite(eventHeader->operation);
	HAL_UartPrint("\t");
	
	uint8_t length = getCommandArgsLenght(&eventHeader->operation);
	for (uint8_t i = 0; i < length; i++)
     210:	80 2f       	mov	r24, r16
     212:	83 50       	subi	r24, 0x03	; 3
     214:	8d 15       	cp	r24, r13
     216:	70 f3       	brcs	.-36     	; 0x1f4 <RF_Send_Event+0x62>
	{
		eoeoe = &eventHeader;
		numWrite(*((uint8_t*)eventHeader + 3 + i));
	}
	
	HAL_UartPrint("\r\n");
     218:	8a e1       	ldi	r24, 0x1A	; 26
     21a:	92 e0       	ldi	r25, 0x02	; 2
     21c:	0e 94 4c 04 	call	0x898	; 0x898 <HAL_UartPrint>
     220:	0f 90       	pop	r0
     222:	0f 90       	pop	r0
     224:	df 91       	pop	r29
     226:	cf 91       	pop	r28
     228:	1f 91       	pop	r17
     22a:	0f 91       	pop	r16
     22c:	ff 90       	pop	r15
     22e:	ef 90       	pop	r14
     230:	df 90       	pop	r13
     232:	08 95       	ret

00000234 <ADC_Reference>:
void ADC_Reference(uint8_t mode)
{
	// can't actually set the register here because the default setting
	// will connect AVCC and the AREF pin, which would cause a short if
	// there's something connected to AREF.
	analog_reference = mode;
     234:	80 93 b5 02 	sts	0x02B5, r24
}
     238:	08 95       	ret

0000023a <ADC_Read>:

unsigned int ADC_Read(uint8_t pin)
{
     23a:	90 91 b5 02 	lds	r25, 0x02B5
	uint8_t low, high;
	
	// set the analog reference (high two bits of ADMUX) and select the
	// channel (low 4 bits).  this also sets ADLAR (left-adjust result)
	// to 0 (the default).
	if(pin <8)
     23e:	88 30       	cpi	r24, 0x08	; 8
     240:	40 f4       	brcc	.+16     	; 0x252 <ADC_Read+0x18>
	{
		ADMUX = (analog_reference << 6) | (pin & 0x07);
     242:	92 95       	swap	r25
     244:	99 0f       	add	r25, r25
     246:	99 0f       	add	r25, r25
     248:	90 7c       	andi	r25, 0xC0	; 192
     24a:	98 2b       	or	r25, r24
     24c:	90 93 7c 00 	sts	0x007C, r25
     250:	08 c0       	rjmp	.+16     	; 0x262 <ADC_Read+0x28>
	}else
	{
		ADMUX = (analog_reference << 6) | INTERNAL_TEMP;		
     252:	89 2f       	mov	r24, r25
     254:	82 95       	swap	r24
     256:	88 0f       	add	r24, r24
     258:	88 0f       	add	r24, r24
     25a:	80 7c       	andi	r24, 0xC0	; 192
     25c:	89 62       	ori	r24, 0x29	; 41
     25e:	80 93 7c 00 	sts	0x007C, r24
	}
	
	ADCSRA |= _BV(ADEN);
     262:	80 91 7a 00 	lds	r24, 0x007A
     266:	80 68       	ori	r24, 0x80	; 128
     268:	80 93 7a 00 	sts	0x007A, r24

	// without a delay, we seem to read from the wrong channel
	HAL_Delay(20);
     26c:	84 e1       	ldi	r24, 0x14	; 20
     26e:	90 e0       	ldi	r25, 0x00	; 0
     270:	0e 94 cb 02 	call	0x596	; 0x596 <HAL_Delay>

	// start the conversion
	ADCSRA |= _BV(ADSC) | _BV(ADPS2) | _BV(ADPS1) | _BV(ADPS0); // prescaler = 128;
     274:	80 91 7a 00 	lds	r24, 0x007A
     278:	87 64       	ori	r24, 0x47	; 71
     27a:	80 93 7a 00 	sts	0x007A, r24

	// ADSC is cleared when the conversion finishes
	while (bit_is_set(ADCSRA, ADSC));
     27e:	80 91 7a 00 	lds	r24, 0x007A
     282:	86 fd       	sbrc	r24, 6
     284:	fc cf       	rjmp	.-8      	; 0x27e <ADC_Read+0x44>

	// we have to read ADCL first; doing so locks both ADCL
	// and ADCH until ADCH is read.  reading ADCL second would
	// cause the results of each conversion to be discarded,
	// as ADCL and ADCH would be locked when it completed.
	low = ADCL;
     286:	80 91 78 00 	lds	r24, 0x0078
	high = ADCH;
     28a:	90 91 79 00 	lds	r25, 0x0079

	// combine the two bytes
	return (high << 8) | low;
     28e:	39 2f       	mov	r19, r25
     290:	20 e0       	ldi	r18, 0x00	; 0
     292:	90 e0       	ldi	r25, 0x00	; 0
     294:	82 2b       	or	r24, r18
     296:	93 2b       	or	r25, r19
	//return ADC;
     298:	08 95       	ret

0000029a <EEPROM_Init>:
	return eeprom_read_byte((unsigned char *) address);
}

void inline EEPROM_Read_Block(void * buffer, const void * address, size_t length)
{
	eeprom_read_block(buffer, address, length);
     29a:	8e e0       	ldi	r24, 0x0E	; 14
     29c:	99 e0       	ldi	r25, 0x09	; 9
     29e:	60 e0       	ldi	r22, 0x00	; 0
     2a0:	70 e0       	ldi	r23, 0x00	; 0
     2a2:	4c e0       	ldi	r20, 0x0C	; 12
     2a4:	50 e0       	ldi	r21, 0x00	; 0
     2a6:	0e 94 67 12 	call	0x24ce	; 0x24ce <__eerd_block_m128rfa1>

void EEPROM_Init(void)
{
	//Get the header only
	EEPROM_Read_Block(runningConfiguration.raw, 0x00, sizeof(DEVICE_INFO_t));
	uint16_t eeprom_size = runningConfiguration.topConfiguration.deviceInfo.length;
     2aa:	40 91 0f 09 	lds	r20, 0x090F
     2ae:	50 91 10 09 	lds	r21, 0x0910
	
	//Copy Startup-configuration to Running-configuration
	if(eeprom_size != 0xFFFF && eeprom_size != 0x00)
     2b2:	ca 01       	movw	r24, r20
     2b4:	01 97       	sbiw	r24, 0x01	; 1
     2b6:	2f ef       	ldi	r18, 0xFF	; 255
     2b8:	8e 3f       	cpi	r24, 0xFE	; 254
     2ba:	92 07       	cpc	r25, r18
     2bc:	30 f4       	brcc	.+12     	; 0x2ca <EEPROM_Init+0x30>
	return eeprom_read_byte((unsigned char *) address);
}

void inline EEPROM_Read_Block(void * buffer, const void * address, size_t length)
{
	eeprom_read_block(buffer, address, length);
     2be:	8e e0       	ldi	r24, 0x0E	; 14
     2c0:	99 e0       	ldi	r25, 0x09	; 9
     2c2:	60 e0       	ldi	r22, 0x00	; 0
     2c4:	70 e0       	ldi	r23, 0x00	; 0
     2c6:	0e 94 67 12 	call	0x24ce	; 0x24ce <__eerd_block_m128rfa1>
     2ca:	08 95       	ret

000002cc <RTC_Init>:

TIME_EVENT_HEADER_t* time_event_header;

void RTC_Init()
{
	TIMSK2 &=~((1<<TOIE2)|(1<<OCIE2B));     //Disable TC2 interrupt
     2cc:	80 91 70 00 	lds	r24, 0x0070
     2d0:	8a 7f       	andi	r24, 0xFA	; 250
     2d2:	80 93 70 00 	sts	0x0070, r24
	ASSR  &=~((1<<EXCLKAMR)|(1<<EXCLK));    // set clock source to external crystal AS2=1, EXCLK=0, EXCKLAMR=0
     2d6:	80 91 b6 00 	lds	r24, 0x00B6
     2da:	8f 73       	andi	r24, 0x3F	; 63
     2dc:	80 93 b6 00 	sts	0x00B6, r24
	ASSR |= (1<<AS2);              // alternate clock source
     2e0:	80 91 b6 00 	lds	r24, 0x00B6
     2e4:	80 62       	ori	r24, 0x20	; 32
     2e6:	80 93 b6 00 	sts	0x00B6, r24
	
	TCNT2 = 0x00;
     2ea:	10 92 b2 00 	sts	0x00B2, r1
	TCCR2B = 0x05;
     2ee:	85 e0       	ldi	r24, 0x05	; 5
     2f0:	80 93 b1 00 	sts	0x00B1, r24
	
	while(ASSR&0x07);           //Wait until TC2 is updated
     2f4:	80 91 b6 00 	lds	r24, 0x00B6
     2f8:	90 e0       	ldi	r25, 0x00	; 0
     2fa:	87 70       	andi	r24, 0x07	; 7
     2fc:	90 70       	andi	r25, 0x00	; 0
     2fe:	00 97       	sbiw	r24, 0x00	; 0
     300:	c9 f7       	brne	.-14     	; 0x2f4 <RTC_Init+0x28>
	TIMSK2 |= (1<<TOIE2);        //set 8-bit Timer/Counter2 Overflow Interrupt Enable
     302:	80 91 70 00 	lds	r24, 0x0070
     306:	81 60       	ori	r24, 0x01	; 1
     308:	80 93 70 00 	sts	0x0070, r24
	sei();                     //set the Global Interrupt Enable Bit
     30c:	78 94       	sei
	
	validTime = 0;
     30e:	10 92 06 09 	sts	0x0906, r1
}
     312:	08 95       	ret

00000314 <Validate_Time>:

void Validate_Time(TIME_t *receivedTime)
{
	memcpy((uint8_t*)receivedTime,(uint8_t*)&currentTime, sizeof(TIME_t));
     314:	fc 01       	movw	r30, r24
     316:	ae e0       	ldi	r26, 0x0E	; 14
     318:	b9 e1       	ldi	r27, 0x19	; 25
     31a:	83 e0       	ldi	r24, 0x03	; 3
     31c:	0d 90       	ld	r0, X+
     31e:	01 92       	st	Z+, r0
     320:	81 50       	subi	r24, 0x01	; 1
     322:	e1 f7       	brne	.-8      	; 0x31c <Validate_Time+0x8>
	
	searchFirstTimeEvent();
     324:	0e 94 fd 01 	call	0x3fa	; 0x3fa <searchFirstTimeEvent>
	validTime = 1;
     328:	81 e0       	ldi	r24, 0x01	; 1
     32a:	80 93 06 09 	sts	0x0906, r24
}
     32e:	08 95       	ret

00000330 <numWrite>:
		time_event_header = (TIME_EVENT_HEADER_t*)&runningConfiguration.raw[TIME_EVENT_LIST_START_ADDRESS + EVENT_TABLE_END_ADDR];
	}
}

void numWrite(unsigned int num)
{
     330:	cf 93       	push	r28
     332:	df 93       	push	r29
     334:	ec 01       	movw	r28, r24
	int aux;
	if(num > 9999)
     336:	87 e2       	ldi	r24, 0x27	; 39
     338:	c0 31       	cpi	r28, 0x10	; 16
     33a:	d8 07       	cpc	r29, r24
     33c:	50 f0       	brcs	.+20     	; 0x352 <numWrite+0x22>
	{
		aux = num / 10000;
		num = num % 10000;
     33e:	ce 01       	movw	r24, r28
     340:	60 e1       	ldi	r22, 0x10	; 16
     342:	77 e2       	ldi	r23, 0x27	; 39
     344:	0e 94 a2 11 	call	0x2344	; 0x2344 <__udivmodhi4>
     348:	ec 01       	movw	r28, r24
		HAL_UartWriteByte(aux+'0');
     34a:	cb 01       	movw	r24, r22
     34c:	c0 96       	adiw	r24, 0x30	; 48
     34e:	0e 94 22 04 	call	0x844	; 0x844 <HAL_UartWriteByte>
	}
	if(num > 999)
     352:	83 e0       	ldi	r24, 0x03	; 3
     354:	c8 3e       	cpi	r28, 0xE8	; 232
     356:	d8 07       	cpc	r29, r24
     358:	50 f0       	brcs	.+20     	; 0x36e <numWrite+0x3e>
	{
		aux = num/1000;
		num = num % 1000;
     35a:	ce 01       	movw	r24, r28
     35c:	68 ee       	ldi	r22, 0xE8	; 232
     35e:	73 e0       	ldi	r23, 0x03	; 3
     360:	0e 94 a2 11 	call	0x2344	; 0x2344 <__udivmodhi4>
     364:	ec 01       	movw	r28, r24
		HAL_UartWriteByte(aux+'0');
     366:	cb 01       	movw	r24, r22
     368:	c0 96       	adiw	r24, 0x30	; 48
     36a:	0e 94 22 04 	call	0x844	; 0x844 <HAL_UartWriteByte>
	}
	if(num > 99)
     36e:	c4 36       	cpi	r28, 0x64	; 100
     370:	d1 05       	cpc	r29, r1
     372:	50 f0       	brcs	.+20     	; 0x388 <numWrite+0x58>
	{
		aux = num/100;
		num = num % 100;
     374:	ce 01       	movw	r24, r28
     376:	64 e6       	ldi	r22, 0x64	; 100
     378:	70 e0       	ldi	r23, 0x00	; 0
     37a:	0e 94 a2 11 	call	0x2344	; 0x2344 <__udivmodhi4>
     37e:	ec 01       	movw	r28, r24
		HAL_UartWriteByte(aux+'0');
     380:	cb 01       	movw	r24, r22
     382:	c0 96       	adiw	r24, 0x30	; 48
     384:	0e 94 22 04 	call	0x844	; 0x844 <HAL_UartWriteByte>
	}
	if(num > 9)
     388:	ca 30       	cpi	r28, 0x0A	; 10
     38a:	d1 05       	cpc	r29, r1
     38c:	50 f0       	brcs	.+20     	; 0x3a2 <numWrite+0x72>
	{
		aux = num/10;
		num = num % 10;
     38e:	ce 01       	movw	r24, r28
     390:	6a e0       	ldi	r22, 0x0A	; 10
     392:	70 e0       	ldi	r23, 0x00	; 0
     394:	0e 94 a2 11 	call	0x2344	; 0x2344 <__udivmodhi4>
     398:	ec 01       	movw	r28, r24
		HAL_UartWriteByte(aux+'0');
     39a:	cb 01       	movw	r24, r22
     39c:	c0 96       	adiw	r24, 0x30	; 48
     39e:	0e 94 22 04 	call	0x844	; 0x844 <HAL_UartWriteByte>
	}	 
	HAL_UartWriteByte((num%10)+'0');
     3a2:	ce 01       	movw	r24, r28
     3a4:	6a e0       	ldi	r22, 0x0A	; 10
     3a6:	70 e0       	ldi	r23, 0x00	; 0
     3a8:	0e 94 a2 11 	call	0x2344	; 0x2344 <__udivmodhi4>
     3ac:	c0 96       	adiw	r24, 0x30	; 48
     3ae:	0e 94 22 04 	call	0x844	; 0x844 <HAL_UartWriteByte>
}
     3b2:	df 91       	pop	r29
     3b4:	cf 91       	pop	r28
     3b6:	08 95       	ret

000003b8 <compareTimes>:

int8_t compareTimes(TIME_t time1, TIME_t time2)
{
     3b8:	cf 93       	push	r28
     3ba:	df 93       	push	r29
     3bc:	00 d0       	rcall	.+0      	; 0x3be <compareTimes+0x6>
     3be:	00 d0       	rcall	.+0      	; 0x3c0 <compareTimes+0x8>
     3c0:	00 d0       	rcall	.+0      	; 0x3c2 <compareTimes+0xa>
     3c2:	cd b7       	in	r28, 0x3d	; 61
     3c4:	de b7       	in	r29, 0x3e	; 62
		if (time1.hour > time2.hour) return 1;
     3c6:	26 17       	cp	r18, r22
     3c8:	60 f0       	brcs	.+24     	; 0x3e2 <compareTimes+0x2a>
		if (time1.hour < time2.hour) return -1;
     3ca:	62 17       	cp	r22, r18
     3cc:	40 f0       	brcs	.+16     	; 0x3de <compareTimes+0x26>
		if (time1.minute > time2.minute) return 1;
     3ce:	37 17       	cp	r19, r23
     3d0:	40 f0       	brcs	.+16     	; 0x3e2 <compareTimes+0x2a>
		if (time1.minute < time2.minute) return -1;
     3d2:	73 17       	cp	r23, r19
     3d4:	20 f0       	brcs	.+8      	; 0x3de <compareTimes+0x26>
		if (time1.second > time2.second) return 1;
     3d6:	48 17       	cp	r20, r24
     3d8:	20 f0       	brcs	.+8      	; 0x3e2 <compareTimes+0x2a>
		if (time1.second < time2.second) return -1;
     3da:	84 17       	cp	r24, r20
     3dc:	20 f4       	brcc	.+8      	; 0x3e6 <compareTimes+0x2e>
int8_t compareTimes(TIME_t time1, TIME_t time2)
{
		if (time1.hour > time2.hour) return 1;
		if (time1.hour < time2.hour) return -1;
		if (time1.minute > time2.minute) return 1;
		if (time1.minute < time2.minute) return -1;
     3de:	8f ef       	ldi	r24, 0xFF	; 255
     3e0:	03 c0       	rjmp	.+6      	; 0x3e8 <compareTimes+0x30>
		if (time1.second > time2.second) return 1;
     3e2:	81 e0       	ldi	r24, 0x01	; 1
     3e4:	01 c0       	rjmp	.+2      	; 0x3e8 <compareTimes+0x30>
		if (time1.second < time2.second) return -1;
		return 0;	
     3e6:	80 e0       	ldi	r24, 0x00	; 0
}
     3e8:	26 96       	adiw	r28, 0x06	; 6
     3ea:	0f b6       	in	r0, 0x3f	; 63
     3ec:	f8 94       	cli
     3ee:	de bf       	out	0x3e, r29	; 62
     3f0:	0f be       	out	0x3f, r0	; 63
     3f2:	cd bf       	out	0x3d, r28	; 61
     3f4:	df 91       	pop	r29
     3f6:	cf 91       	pop	r28
     3f8:	08 95       	ret

000003fa <searchFirstTimeEvent>:
	searchFirstTimeEvent();
	validTime = 1;
}

void searchFirstTimeEvent()
{
     3fa:	1f 93       	push	r17
     3fc:	cf 93       	push	r28
     3fe:	df 93       	push	r29
	uint16_t event_ptr;
	for(event_ptr = TIME_EVENT_LIST_START_ADDRESS; event_ptr < TIME_EVENT_LIST_END_ADDRESS;)
     400:	c0 91 da 09 	lds	r28, 0x09DA
     404:	d0 e0       	ldi	r29, 0x00	; 0
     406:	21 c0       	rjmp	.+66     	; 0x44a <searchFirstTimeEvent+0x50>
	{
		time_event_header = (TIME_EVENT_HEADER_t*)&runningConfiguration.raw[event_ptr + EVENT_TABLE_END_ADDR];
     408:	ce 01       	movw	r24, r28
     40a:	80 52       	subi	r24, 0x20	; 32
     40c:	96 4f       	sbci	r25, 0xF6	; 246
     40e:	90 93 f8 08 	sts	0x08F8, r25
     412:	80 93 f7 08 	sts	0x08F7, r24
		uint8_t args_length = getCommandArgsLenght(&time_event_header->eventHeader.operation);
     416:	05 96       	adiw	r24, 0x05	; 5
     418:	0e 94 b1 00 	call	0x162	; 0x162 <getCommandArgsLenght>
     41c:	18 2f       	mov	r17, r24
		
		if(compareTimes(time_event_header->activationTime, currentTime) >= 0) break;
     41e:	e0 91 f7 08 	lds	r30, 0x08F7
     422:	f0 91 f8 08 	lds	r31, 0x08F8
     426:	60 81       	ld	r22, Z
     428:	71 81       	ldd	r23, Z+1	; 0x01
     42a:	82 81       	ldd	r24, Z+2	; 0x02
     42c:	20 91 0e 19 	lds	r18, 0x190E
     430:	30 91 0f 19 	lds	r19, 0x190F
     434:	40 91 10 19 	lds	r20, 0x1910
     438:	0e 94 dc 01 	call	0x3b8	; 0x3b8 <compareTimes>
     43c:	87 ff       	sbrs	r24, 7
     43e:	0b c0       	rjmp	.+22     	; 0x456 <searchFirstTimeEvent+0x5c>
		event_ptr += args_length + sizeof(TIME_EVENT_HEADER_t);
     440:	81 2f       	mov	r24, r17
     442:	90 e0       	ldi	r25, 0x00	; 0
     444:	06 96       	adiw	r24, 0x06	; 6
     446:	c8 0f       	add	r28, r24
     448:	d9 1f       	adc	r29, r25
}

void searchFirstTimeEvent()
{
	uint16_t event_ptr;
	for(event_ptr = TIME_EVENT_LIST_START_ADDRESS; event_ptr < TIME_EVENT_LIST_END_ADDRESS;)
     44a:	80 91 dc 09 	lds	r24, 0x09DC
     44e:	90 e0       	ldi	r25, 0x00	; 0
     450:	c8 17       	cp	r28, r24
     452:	d9 07       	cpc	r29, r25
     454:	c8 f2       	brcs	.-78     	; 0x408 <searchFirstTimeEvent+0xe>
		
		if(compareTimes(time_event_header->activationTime, currentTime) >= 0) break;
		event_ptr += args_length + sizeof(TIME_EVENT_HEADER_t);
	}
	
	if(event_ptr >= TIME_EVENT_LIST_END_ADDRESS)
     456:	80 91 dc 09 	lds	r24, 0x09DC
     45a:	90 e0       	ldi	r25, 0x00	; 0
     45c:	c8 17       	cp	r28, r24
     45e:	d9 07       	cpc	r29, r25
     460:	48 f0       	brcs	.+18     	; 0x474 <searchFirstTimeEvent+0x7a>
	{
		time_event_header = (TIME_EVENT_HEADER_t*)&runningConfiguration.raw[TIME_EVENT_LIST_START_ADDRESS + EVENT_TABLE_END_ADDR];
     462:	80 91 da 09 	lds	r24, 0x09DA
     466:	90 e0       	ldi	r25, 0x00	; 0
     468:	80 52       	subi	r24, 0x20	; 32
     46a:	96 4f       	sbci	r25, 0xF6	; 246
     46c:	90 93 f8 08 	sts	0x08F8, r25
     470:	80 93 f7 08 	sts	0x08F7, r24
	}
}
     474:	df 91       	pop	r29
     476:	cf 91       	pop	r28
     478:	1f 91       	pop	r17
     47a:	08 95       	ret

0000047c <__vector_15>:
		if (time1.second < time2.second) return -1;
		return 0;	
}

ISR(TIMER2_OVF_vect)  //overflow interrupt vector
{
     47c:	1f 92       	push	r1
     47e:	0f 92       	push	r0
     480:	0f b6       	in	r0, 0x3f	; 63
     482:	0f 92       	push	r0
     484:	0b b6       	in	r0, 0x3b	; 59
     486:	0f 92       	push	r0
     488:	11 24       	eor	r1, r1
     48a:	2f 93       	push	r18
     48c:	3f 93       	push	r19
     48e:	4f 93       	push	r20
     490:	5f 93       	push	r21
     492:	6f 93       	push	r22
     494:	7f 93       	push	r23
     496:	8f 93       	push	r24
     498:	9f 93       	push	r25
     49a:	af 93       	push	r26
     49c:	bf 93       	push	r27
     49e:	cf 93       	push	r28
     4a0:	df 93       	push	r29
     4a2:	ef 93       	push	r30
     4a4:	ff 93       	push	r31
	if (++currentTime.second==60)        //keep track of time
     4a6:	80 91 10 19 	lds	r24, 0x1910
     4aa:	8f 5f       	subi	r24, 0xFF	; 255
     4ac:	80 93 10 19 	sts	0x1910, r24
     4b0:	8c 33       	cpi	r24, 0x3C	; 60
     4b2:	a1 f4       	brne	.+40     	; 0x4dc <__vector_15+0x60>
	{
		currentTime.second=0;
     4b4:	10 92 10 19 	sts	0x1910, r1
		if (++currentTime.minute==60)
     4b8:	80 91 0f 19 	lds	r24, 0x190F
     4bc:	8f 5f       	subi	r24, 0xFF	; 255
     4be:	80 93 0f 19 	sts	0x190F, r24
     4c2:	8c 33       	cpi	r24, 0x3C	; 60
     4c4:	59 f4       	brne	.+22     	; 0x4dc <__vector_15+0x60>
		{
			currentTime.minute=0;
     4c6:	10 92 0f 19 	sts	0x190F, r1
			if (++currentTime.hour==24)
     4ca:	80 91 0e 19 	lds	r24, 0x190E
     4ce:	8f 5f       	subi	r24, 0xFF	; 255
     4d0:	80 93 0e 19 	sts	0x190E, r24
     4d4:	88 31       	cpi	r24, 0x18	; 24
     4d6:	11 f4       	brne	.+4      	; 0x4dc <__vector_15+0x60>
			{
				currentTime.hour=0;
     4d8:	10 92 0e 19 	sts	0x190E, r1
			}
		}
	}
	
	//Check Time Events
	if(validTime)
     4dc:	80 91 06 09 	lds	r24, 0x0906
     4e0:	88 23       	and	r24, r24
     4e2:	31 f5       	brne	.+76     	; 0x530 <__vector_15+0xb4>
     4e4:	36 c0       	rjmp	.+108    	; 0x552 <__vector_15+0xd6>
	{
		while(compareTimes(time_event_header->activationTime, currentTime) == 0)
		{
			
			//RF_Send_Event(time_event_header - EVENT_TABLE_END_ADDR);//Relative address
			RF_Send_Event(&time_event_header->eventHeader);
     4e6:	ce 01       	movw	r24, r28
     4e8:	03 96       	adiw	r24, 0x03	; 3
     4ea:	0e 94 c9 00 	call	0x192	; 0x192 <RF_Send_Event>
			
			time_event_header = (uint16_t)time_event_header + getCommandArgsLenght(&time_event_header->eventHeader.operation) + sizeof(TIME_EVENT_HEADER_t);
     4ee:	c0 91 f7 08 	lds	r28, 0x08F7
     4f2:	d0 91 f8 08 	lds	r29, 0x08F8
     4f6:	ce 01       	movw	r24, r28
     4f8:	05 96       	adiw	r24, 0x05	; 5
     4fa:	0e 94 b1 00 	call	0x162	; 0x162 <getCommandArgsLenght>
     4fe:	26 96       	adiw	r28, 0x06	; 6
     500:	c8 0f       	add	r28, r24
     502:	d1 1d       	adc	r29, r1
     504:	d0 93 f8 08 	sts	0x08F8, r29
     508:	c0 93 f7 08 	sts	0x08F7, r28
			
			if(time_event_header >= ((uint16_t)&runningConfiguration) + TIME_EVENT_LIST_END_ADDRESS + EVENT_TABLE_END_ADDR )
     50c:	80 91 dc 09 	lds	r24, 0x09DC
     510:	90 e0       	ldi	r25, 0x00	; 0
     512:	80 52       	subi	r24, 0x20	; 32
     514:	96 4f       	sbci	r25, 0xF6	; 246
     516:	c8 17       	cp	r28, r24
     518:	d9 07       	cpc	r29, r25
     51a:	50 f0       	brcs	.+20     	; 0x530 <__vector_15+0xb4>
			{
				time_event_header = (TIME_EVENT_HEADER_t*)&runningConfiguration.raw[TIME_EVENT_LIST_START_ADDRESS + EVENT_TABLE_END_ADDR];
     51c:	80 91 da 09 	lds	r24, 0x09DA
     520:	90 e0       	ldi	r25, 0x00	; 0
     522:	80 52       	subi	r24, 0x20	; 32
     524:	96 4f       	sbci	r25, 0xF6	; 246
     526:	90 93 f8 08 	sts	0x08F8, r25
     52a:	80 93 f7 08 	sts	0x08F7, r24
				break;
     52e:	11 c0       	rjmp	.+34     	; 0x552 <__vector_15+0xd6>
	}
	
	//Check Time Events
	if(validTime)
	{
		while(compareTimes(time_event_header->activationTime, currentTime) == 0)
     530:	c0 91 f7 08 	lds	r28, 0x08F7
     534:	d0 91 f8 08 	lds	r29, 0x08F8
     538:	68 81       	ld	r22, Y
     53a:	79 81       	ldd	r23, Y+1	; 0x01
     53c:	8a 81       	ldd	r24, Y+2	; 0x02
     53e:	20 91 0e 19 	lds	r18, 0x190E
     542:	30 91 0f 19 	lds	r19, 0x190F
     546:	40 91 10 19 	lds	r20, 0x1910
     54a:	0e 94 dc 01 	call	0x3b8	; 0x3b8 <compareTimes>
     54e:	88 23       	and	r24, r24
     550:	51 f2       	breq	.-108    	; 0x4e6 <__vector_15+0x6a>
				time_event_header = (TIME_EVENT_HEADER_t*)&runningConfiguration.raw[TIME_EVENT_LIST_START_ADDRESS + EVENT_TABLE_END_ADDR];
				break;
			}		
		}
	}
}
     552:	ff 91       	pop	r31
     554:	ef 91       	pop	r30
     556:	df 91       	pop	r29
     558:	cf 91       	pop	r28
     55a:	bf 91       	pop	r27
     55c:	af 91       	pop	r26
     55e:	9f 91       	pop	r25
     560:	8f 91       	pop	r24
     562:	7f 91       	pop	r23
     564:	6f 91       	pop	r22
     566:	5f 91       	pop	r21
     568:	4f 91       	pop	r20
     56a:	3f 91       	pop	r19
     56c:	2f 91       	pop	r18
     56e:	0f 90       	pop	r0
     570:	0b be       	out	0x3b, r0	; 59
     572:	0f 90       	pop	r0
     574:	0f be       	out	0x3f, r0	; 63
     576:	0f 90       	pop	r0
     578:	1f 90       	pop	r1
     57a:	18 95       	reti

0000057c <HAL_Init>:

/*****************************************************************************
*****************************************************************************/
void HAL_Init(void)
{
  MCUSR = 0;
     57c:	14 be       	out	0x34, r1	; 52
  wdt_disable();
     57e:	88 e1       	ldi	r24, 0x18	; 24
     580:	0f b6       	in	r0, 0x3f	; 63
     582:	f8 94       	cli
     584:	80 93 60 00 	sts	0x0060, r24
     588:	10 92 60 00 	sts	0x0060, r1
     58c:	0f be       	out	0x3f, r0	; 63
  SYS_EnableInterrupts();
     58e:	78 94       	sei

  HAL_TimerInit();
     590:	0e 94 5d 03 	call	0x6ba	; 0x6ba <HAL_TimerInit>
}
     594:	08 95       	ret

00000596 <HAL_Delay>:

/*****************************************************************************
*****************************************************************************/
void HAL_Delay(uint8_t us)
{
  HAL_TimerDelay(us);
     596:	90 e0       	ldi	r25, 0x00	; 0
     598:	0e 94 72 03 	call	0x6e4	; 0x6e4 <HAL_TimerDelay>
}
     59c:	08 95       	ret

0000059e <HAL_Sleep>:
}

/*****************************************************************************
*****************************************************************************/
void HAL_Sleep(uint32_t interval)
{
     59e:	0f 93       	push	r16
     5a0:	1f 93       	push	r17
  uint32_t ticks;
  uint16_t integer;
  uint8_t fractional;

  ticks = (HAL_SLEEP_TIMER_CLOCK * interval) / (HAL_SLEEP_TIMER_PRESCALER * 1000ul);
     5a2:	2f e0       	ldi	r18, 0x0F	; 15
     5a4:	66 0f       	add	r22, r22
     5a6:	77 1f       	adc	r23, r23
     5a8:	88 1f       	adc	r24, r24
     5aa:	99 1f       	adc	r25, r25
     5ac:	2a 95       	dec	r18
     5ae:	d1 f7       	brne	.-12     	; 0x5a4 <HAL_Sleep+0x6>
     5b0:	20 e0       	ldi	r18, 0x00	; 0
     5b2:	30 ea       	ldi	r19, 0xA0	; 160
     5b4:	4f e0       	ldi	r20, 0x0F	; 15
     5b6:	50 e0       	ldi	r21, 0x00	; 0
     5b8:	0e 94 b6 11 	call	0x236c	; 0x236c <__udivmodsi4>
     5bc:	89 01       	movw	r16, r18
     5be:	9a 01       	movw	r18, r20
  if (0 == ticks)
     5c0:	01 15       	cp	r16, r1
     5c2:	11 05       	cpc	r17, r1
     5c4:	21 05       	cpc	r18, r1
     5c6:	31 05       	cpc	r19, r1
     5c8:	09 f4       	brne	.+2      	; 0x5cc <HAL_Sleep+0x2e>
     5ca:	65 c0       	rjmp	.+202    	; 0x696 <HAL_Sleep+0xf8>
    return;

  integer = ticks >> 8;
     5cc:	bb 27       	eor	r27, r27
     5ce:	a3 2f       	mov	r26, r19
     5d0:	92 2f       	mov	r25, r18
     5d2:	81 2f       	mov	r24, r17
  fractional = ticks & 0xff;

  TIMSK2 = 0;
     5d4:	10 92 70 00 	sts	0x0070, r1
  ASSR |= (1 << AS2);
     5d8:	20 91 b6 00 	lds	r18, 0x00B6
     5dc:	20 62       	ori	r18, 0x20	; 32
     5de:	20 93 b6 00 	sts	0x00B6, r18
  TCCR2A = 0;
     5e2:	10 92 b0 00 	sts	0x00B0, r1
  TCCR2B = 0;
     5e6:	10 92 b1 00 	sts	0x00B1, r1
  TCNT2 = 0;
     5ea:	10 92 b2 00 	sts	0x00B2, r1

/*****************************************************************************
*****************************************************************************/
inline void halSleepSynchronize(void)
{
  while (ASSR & ((1 << TCN2UB) | (1 << OCR2AUB) | (1 << OCR2BUB) | (1 << TCR2AUB) | (1 << TCR2BUB)));
     5ee:	20 91 b6 00 	lds	r18, 0x00B6
     5f2:	30 e0       	ldi	r19, 0x00	; 0
     5f4:	2f 71       	andi	r18, 0x1F	; 31
     5f6:	30 70       	andi	r19, 0x00	; 0
     5f8:	21 15       	cp	r18, r1
     5fa:	31 05       	cpc	r19, r1
     5fc:	c1 f7       	brne	.-16     	; 0x5ee <HAL_Sleep+0x50>
  TCCR2A = 0;
  TCCR2B = 0;
  TCNT2 = 0;
  halSleepSynchronize();

  TIFR2 = (1 << OCF2B) | (1 << OCF2A) | (1 << TOV2);
     5fe:	27 e0       	ldi	r18, 0x07	; 7
     600:	27 bb       	out	0x17, r18	; 23
  TCCR2B = ((1 << CS20) | (1 << CS21) | (1 << CS22));   // clk/1024
     602:	20 93 b1 00 	sts	0x00B1, r18
  while (1)
  {
    halSleepTimerEvent = false;
    
    if (integer > 0)
      OCR2A = 0xff;
     606:	5f ef       	ldi	r21, 0xFF	; 255

    TIMSK2 |= (1 << OCIE2A);

    halSleepSynchronize();

    SMCR = (1 << SM1) | (1 << SM0) | (1 << SE); // power-save
     608:	47 e0       	ldi	r20, 0x07	; 7
     60a:	01 c0       	rjmp	.+2      	; 0x60e <HAL_Sleep+0x70>
    if (event)
    {
      if (integer > 0)
        integer--;
      else
        fractional = 0;
     60c:	00 e0       	ldi	r16, 0x00	; 0
  TIFR2 = (1 << OCF2B) | (1 << OCF2A) | (1 << TOV2);
  TCCR2B = ((1 << CS20) | (1 << CS21) | (1 << CS22));   // clk/1024

  while (1)
  {
    halSleepTimerEvent = false;
     60e:	10 92 b6 02 	sts	0x02B6, r1
    
    if (integer > 0)
     612:	00 97       	sbiw	r24, 0x00	; 0
     614:	19 f0       	breq	.+6      	; 0x61c <HAL_Sleep+0x7e>
      OCR2A = 0xff;
     616:	50 93 b3 00 	sts	0x00B3, r21
     61a:	20 c0       	rjmp	.+64     	; 0x65c <HAL_Sleep+0xbe>
    else if (fractional > 0)
     61c:	00 23       	and	r16, r16
     61e:	19 f0       	breq	.+6      	; 0x626 <HAL_Sleep+0x88>
      OCR2A = fractional;
     620:	00 93 b3 00 	sts	0x00B3, r16
     624:	1b c0       	rjmp	.+54     	; 0x65c <HAL_Sleep+0xbe>

/*****************************************************************************
*****************************************************************************/
inline void halSleepSynchronize(void)
{
  while (ASSR & ((1 << TCN2UB) | (1 << OCR2AUB) | (1 << OCR2BUB) | (1 << TCR2AUB) | (1 << TCR2BUB)));
     626:	80 91 b6 00 	lds	r24, 0x00B6
     62a:	90 e0       	ldi	r25, 0x00	; 0
     62c:	8f 71       	andi	r24, 0x1F	; 31
     62e:	90 70       	andi	r25, 0x00	; 0
     630:	00 97       	sbiw	r24, 0x00	; 0
     632:	c9 f7       	brne	.-14     	; 0x626 <HAL_Sleep+0x88>
    else if (fractional > 0)
      OCR2A = fractional;
    else
    {
      halSleepSynchronize();
      TIMSK2 = 0;
     634:	10 92 70 00 	sts	0x0070, r1
      TCCR2B = 0;
     638:	10 92 b1 00 	sts	0x00B1, r1
      GTCCR |= (1 << PSRASY);
     63c:	83 b5       	in	r24, 0x23	; 35
     63e:	82 60       	ori	r24, 0x02	; 2
     640:	83 bd       	out	0x23, r24	; 35

/*****************************************************************************
*****************************************************************************/
inline void halSleepSynchronize(void)
{
  while (ASSR & ((1 << TCN2UB) | (1 << OCR2AUB) | (1 << OCR2BUB) | (1 << TCR2AUB) | (1 << TCR2BUB)));
     642:	80 91 b6 00 	lds	r24, 0x00B6
     646:	90 e0       	ldi	r25, 0x00	; 0
     648:	8f 71       	andi	r24, 0x1F	; 31
     64a:	90 70       	andi	r25, 0x00	; 0
     64c:	00 97       	sbiw	r24, 0x00	; 0
     64e:	c9 f7       	brne	.-14     	; 0x642 <HAL_Sleep+0xa4>
      halSleepSynchronize();
      TIMSK2 = 0;
      TCCR2B = 0;
      GTCCR |= (1 << PSRASY);
      halSleepSynchronize();
      ASSR &= ~(1 << AS2);
     650:	80 91 b6 00 	lds	r24, 0x00B6
     654:	8f 7d       	andi	r24, 0xDF	; 223
     656:	80 93 b6 00 	sts	0x00B6, r24
      return;
     65a:	1d c0       	rjmp	.+58     	; 0x696 <HAL_Sleep+0xf8>
    }

    TIMSK2 |= (1 << OCIE2A);
     65c:	20 91 70 00 	lds	r18, 0x0070
     660:	22 60       	ori	r18, 0x02	; 2
     662:	20 93 70 00 	sts	0x0070, r18

/*****************************************************************************
*****************************************************************************/
inline void halSleepSynchronize(void)
{
  while (ASSR & ((1 << TCN2UB) | (1 << OCR2AUB) | (1 << OCR2BUB) | (1 << TCR2AUB) | (1 << TCR2BUB)));
     666:	20 91 b6 00 	lds	r18, 0x00B6
     66a:	30 e0       	ldi	r19, 0x00	; 0
     66c:	2f 71       	andi	r18, 0x1F	; 31
     66e:	30 70       	andi	r19, 0x00	; 0
     670:	21 15       	cp	r18, r1
     672:	31 05       	cpc	r19, r1
     674:	c1 f7       	brne	.-16     	; 0x666 <HAL_Sleep+0xc8>

    TIMSK2 |= (1 << OCIE2A);

    halSleepSynchronize();

    SMCR = (1 << SM1) | (1 << SM0) | (1 << SE); // power-save
     676:	43 bf       	out	0x33, r20	; 51
    asm("sleep");
     678:	88 95       	sleep
    SMCR = 0;
     67a:	13 be       	out	0x33, r1	; 51

    bool event;

    ATOMIC_SECTION_ENTER
     67c:	3f b7       	in	r19, 0x3f	; 63
     67e:	f8 94       	cli
      event = halSleepTimerEvent;
     680:	20 91 b6 02 	lds	r18, 0x02B6
    ATOMIC_SECTION_LEAVE
     684:	3f bf       	out	0x3f, r19	; 63

    if (event)
     686:	22 23       	and	r18, r18
     688:	09 f4       	brne	.+2      	; 0x68c <HAL_Sleep+0xee>
     68a:	c1 cf       	rjmp	.-126    	; 0x60e <HAL_Sleep+0x70>
    {
      if (integer > 0)
     68c:	00 97       	sbiw	r24, 0x00	; 0
     68e:	09 f4       	brne	.+2      	; 0x692 <HAL_Sleep+0xf4>
     690:	bd cf       	rjmp	.-134    	; 0x60c <HAL_Sleep+0x6e>
        integer--;
     692:	01 97       	sbiw	r24, 0x01	; 1
     694:	bc cf       	rjmp	.-136    	; 0x60e <HAL_Sleep+0x70>
    else
    {
      // TODO: wakeup from some other source
    }
  }
}
     696:	1f 91       	pop	r17
     698:	0f 91       	pop	r16
     69a:	08 95       	ret

0000069c <__vector_13>:

/*****************************************************************************
*****************************************************************************/
ISR(TIMER2_COMPA_vect)
{
     69c:	1f 92       	push	r1
     69e:	0f 92       	push	r0
     6a0:	0f b6       	in	r0, 0x3f	; 63
     6a2:	0f 92       	push	r0
     6a4:	11 24       	eor	r1, r1
     6a6:	8f 93       	push	r24
  halSleepTimerEvent = true;
     6a8:	81 e0       	ldi	r24, 0x01	; 1
     6aa:	80 93 b6 02 	sts	0x02B6, r24
}
     6ae:	8f 91       	pop	r24
     6b0:	0f 90       	pop	r0
     6b2:	0f be       	out	0x3f, r0	; 63
     6b4:	0f 90       	pop	r0
     6b6:	1f 90       	pop	r1
     6b8:	18 95       	reti

000006ba <HAL_TimerInit>:

/*****************************************************************************
*****************************************************************************/
void HAL_TimerInit(void)
{
  halTimerIrqCount = 0;
     6ba:	10 92 f9 08 	sts	0x08F9, r1

  OCR4A = ((F_CPU / 1000ul) / TIMER_PRESCALER) * HAL_TIMER_INTERVAL;
     6be:	80 e1       	ldi	r24, 0x10	; 16
     6c0:	97 e2       	ldi	r25, 0x27	; 39
     6c2:	90 93 a9 00 	sts	0x00A9, r25
     6c6:	80 93 a8 00 	sts	0x00A8, r24
  TCCR4B = (1 << WGM12);              // CTC mode
     6ca:	e1 ea       	ldi	r30, 0xA1	; 161
     6cc:	f0 e0       	ldi	r31, 0x00	; 0
     6ce:	88 e0       	ldi	r24, 0x08	; 8
     6d0:	80 83       	st	Z, r24
  TCCR4B |= (1 << CS11);              // Prescaler 8
     6d2:	80 81       	ld	r24, Z
     6d4:	82 60       	ori	r24, 0x02	; 2
     6d6:	80 83       	st	Z, r24
  TIMSK4 |= (1 << OCIE4A);            // Enable TC4 interrupt
     6d8:	e2 e7       	ldi	r30, 0x72	; 114
     6da:	f0 e0       	ldi	r31, 0x00	; 0
     6dc:	80 81       	ld	r24, Z
     6de:	82 60       	ori	r24, 0x02	; 2
     6e0:	80 83       	st	Z, r24
}
     6e2:	08 95       	ret

000006e4 <HAL_TimerDelay>:
*****************************************************************************/
void HAL_TimerDelay(uint16_t us)
{
  PRAGMA(diag_suppress=Pa082);

  OCR4B = TCNT4 + us;
     6e4:	20 91 a4 00 	lds	r18, 0x00A4
     6e8:	30 91 a5 00 	lds	r19, 0x00A5
     6ec:	28 0f       	add	r18, r24
     6ee:	39 1f       	adc	r19, r25
     6f0:	30 93 ab 00 	sts	0x00AB, r19
     6f4:	20 93 aa 00 	sts	0x00AA, r18
  if (OCR4B > OCR4A)
     6f8:	20 91 aa 00 	lds	r18, 0x00AA
     6fc:	30 91 ab 00 	lds	r19, 0x00AB
     700:	80 91 a8 00 	lds	r24, 0x00A8
     704:	90 91 a9 00 	lds	r25, 0x00A9
     708:	82 17       	cp	r24, r18
     70a:	93 07       	cpc	r25, r19
     70c:	70 f4       	brcc	.+28     	; 0x72a <HAL_TimerDelay+0x46>
    OCR4B -= OCR4A;
     70e:	80 91 aa 00 	lds	r24, 0x00AA
     712:	90 91 ab 00 	lds	r25, 0x00AB
     716:	20 91 a8 00 	lds	r18, 0x00A8
     71a:	30 91 a9 00 	lds	r19, 0x00A9
     71e:	82 1b       	sub	r24, r18
     720:	93 0b       	sbc	r25, r19
     722:	90 93 ab 00 	sts	0x00AB, r25
     726:	80 93 aa 00 	sts	0x00AA, r24

  halTimerDelayInt = 0;
     72a:	10 92 b7 02 	sts	0x02B7, r1
  TIMSK4 |= (1 << OCIE4B);
     72e:	80 91 72 00 	lds	r24, 0x0072
     732:	84 60       	ori	r24, 0x04	; 4
     734:	80 93 72 00 	sts	0x0072, r24
  while (0 == halTimerDelayInt);
     738:	80 91 b7 02 	lds	r24, 0x02B7
     73c:	88 23       	and	r24, r24
     73e:	e1 f3       	breq	.-8      	; 0x738 <HAL_TimerDelay+0x54>
  TIMSK4 &= ~(1 << OCIE4B);
     740:	80 91 72 00 	lds	r24, 0x0072
     744:	8b 7f       	andi	r24, 0xFB	; 251
     746:	80 93 72 00 	sts	0x0072, r24

  PRAGMA(diag_default=Pa082);
}
     74a:	08 95       	ret

0000074c <__vector_42>:

/*****************************************************************************
*****************************************************************************/
ISR(TIMER4_COMPA_vect)
{
     74c:	1f 92       	push	r1
     74e:	0f 92       	push	r0
     750:	0f b6       	in	r0, 0x3f	; 63
     752:	0f 92       	push	r0
     754:	11 24       	eor	r1, r1
     756:	8f 93       	push	r24
  halTimerIrqCount++;
     758:	80 91 f9 08 	lds	r24, 0x08F9
     75c:	8f 5f       	subi	r24, 0xFF	; 255
     75e:	80 93 f9 08 	sts	0x08F9, r24
}
     762:	8f 91       	pop	r24
     764:	0f 90       	pop	r0
     766:	0f be       	out	0x3f, r0	; 63
     768:	0f 90       	pop	r0
     76a:	1f 90       	pop	r1
     76c:	18 95       	reti

0000076e <__vector_43>:

/*****************************************************************************
*****************************************************************************/
ISR(TIMER4_COMPB_vect)
{
     76e:	1f 92       	push	r1
     770:	0f 92       	push	r0
     772:	0f b6       	in	r0, 0x3f	; 63
     774:	0f 92       	push	r0
     776:	11 24       	eor	r1, r1
     778:	8f 93       	push	r24
  halTimerDelayInt = 1;
     77a:	81 e0       	ldi	r24, 0x01	; 1
     77c:	80 93 b7 02 	sts	0x02B7, r24
}
     780:	8f 91       	pop	r24
     782:	0f 90       	pop	r0
     784:	0f be       	out	0x3f, r0	; 63
     786:	0f 90       	pop	r0
     788:	1f 90       	pop	r1
     78a:	18 95       	reti

0000078c <HAL_UartInit>:
static volatile bool newData;

/*****************************************************************************
*****************************************************************************/
void HAL_UartInit(uint32_t baudrate)
{
     78c:	0f 93       	push	r16
     78e:	1f 93       	push	r17
     790:	9b 01       	movw	r18, r22
     792:	ac 01       	movw	r20, r24
  uint32_t brr = ((uint32_t)F_CPU * 2) / (16 * baudrate) - 1;
     794:	e4 e0       	ldi	r30, 0x04	; 4
     796:	22 0f       	add	r18, r18
     798:	33 1f       	adc	r19, r19
     79a:	44 1f       	adc	r20, r20
     79c:	55 1f       	adc	r21, r21
     79e:	ea 95       	dec	r30
     7a0:	d1 f7       	brne	.-12     	; 0x796 <HAL_UartInit+0xa>
     7a2:	60 e0       	ldi	r22, 0x00	; 0
     7a4:	74 e2       	ldi	r23, 0x24	; 36
     7a6:	84 ef       	ldi	r24, 0xF4	; 244
     7a8:	90 e0       	ldi	r25, 0x00	; 0
     7aa:	0e 94 b6 11 	call	0x236c	; 0x236c <__udivmodsi4>
     7ae:	89 01       	movw	r16, r18
     7b0:	9a 01       	movw	r18, r20
     7b2:	01 50       	subi	r16, 0x01	; 1
     7b4:	10 40       	sbci	r17, 0x00	; 0
     7b6:	20 40       	sbci	r18, 0x00	; 0
     7b8:	30 40       	sbci	r19, 0x00	; 0

  UBRRxH = (brr >> 8) & 0xff;
     7ba:	bb 27       	eor	r27, r27
     7bc:	a3 2f       	mov	r26, r19
     7be:	92 2f       	mov	r25, r18
     7c0:	81 2f       	mov	r24, r17
     7c2:	80 93 c5 00 	sts	0x00C5, r24
  UBRRxL = (brr & 0xff);
     7c6:	00 93 c4 00 	sts	0x00C4, r16
  UCSRxA = (1 << U2X1);
     7ca:	82 e0       	ldi	r24, 0x02	; 2
     7cc:	80 93 c0 00 	sts	0x00C0, r24
  UCSRxB = (1 << TXEN1) | (1 << RXEN1) | (1 << RXCIE1);
     7d0:	88 e9       	ldi	r24, 0x98	; 152
     7d2:	80 93 c1 00 	sts	0x00C1, r24
  UCSRxC = (3 << UCSZ10);
     7d6:	86 e0       	ldi	r24, 0x06	; 6
     7d8:	80 93 c2 00 	sts	0x00C2, r24

  txFifo.data = txData;
     7dc:	8e ec       	ldi	r24, 0xCE	; 206
     7de:	92 e0       	ldi	r25, 0x02	; 2
     7e0:	90 93 cd 02 	sts	0x02CD, r25
     7e4:	80 93 cc 02 	sts	0x02CC, r24
  txFifo.size = HAL_UART_TX_FIFO_SIZE;
     7e8:	20 e8       	ldi	r18, 0x80	; 128
     7ea:	30 e0       	ldi	r19, 0x00	; 0
     7ec:	30 93 c9 02 	sts	0x02C9, r19
     7f0:	20 93 c8 02 	sts	0x02C8, r18
  txFifo.bytes = 0;
     7f4:	10 92 cb 02 	sts	0x02CB, r1
     7f8:	10 92 ca 02 	sts	0x02CA, r1
  txFifo.head = 0;
     7fc:	e4 ec       	ldi	r30, 0xC4	; 196
     7fe:	f2 e0       	ldi	r31, 0x02	; 2
     800:	11 82       	std	Z+1, r1	; 0x01
     802:	10 82       	st	Z, r1
  txFifo.tail = 0;
     804:	13 82       	std	Z+3, r1	; 0x03
     806:	12 82       	std	Z+2, r1	; 0x02

  rxFifo.data = rxData;
     808:	82 ec       	ldi	r24, 0xC2	; 194
     80a:	92 e0       	ldi	r25, 0x02	; 2
     80c:	4f e4       	ldi	r20, 0x4F	; 79
     80e:	53 e0       	ldi	r21, 0x03	; 3
     810:	50 93 c3 02 	sts	0x02C3, r21
     814:	40 93 c2 02 	sts	0x02C2, r20
  rxFifo.size = HAL_UART_RX_FIFO_SIZE;
     818:	fc 01       	movw	r30, r24
     81a:	34 97       	sbiw	r30, 0x04	; 4
     81c:	31 83       	std	Z+1, r19	; 0x01
     81e:	20 83       	st	Z, r18
  rxFifo.bytes = 0;
     820:	fc 01       	movw	r30, r24
     822:	32 97       	sbiw	r30, 0x02	; 2
     824:	11 82       	std	Z+1, r1	; 0x01
     826:	10 82       	st	Z, r1
  rxFifo.head = 0;
     828:	fc 01       	movw	r30, r24
     82a:	38 97       	sbiw	r30, 0x08	; 8
     82c:	11 82       	std	Z+1, r1	; 0x01
     82e:	10 82       	st	Z, r1
  rxFifo.tail = 0;
     830:	13 82       	std	Z+3, r1	; 0x03
     832:	12 82       	std	Z+2, r1	; 0x02

  udrEmpty = true;
     834:	81 e0       	ldi	r24, 0x01	; 1
     836:	80 93 b9 02 	sts	0x02B9, r24
  newData = false;
     83a:	10 92 b8 02 	sts	0x02B8, r1
}
     83e:	1f 91       	pop	r17
     840:	0f 91       	pop	r16
     842:	08 95       	ret

00000844 <HAL_UartWriteByte>:

/*****************************************************************************
*****************************************************************************/
void HAL_UartWriteByte(uint8_t byte)
{
  if (txFifo.bytes == txFifo.size)
     844:	60 91 ca 02 	lds	r22, 0x02CA
     848:	70 91 cb 02 	lds	r23, 0x02CB
     84c:	40 91 c8 02 	lds	r20, 0x02C8
     850:	50 91 c9 02 	lds	r21, 0x02C9
     854:	64 17       	cp	r22, r20
     856:	75 07       	cpc	r23, r21
     858:	f1 f0       	breq	.+60     	; 0x896 <HAL_UartWriteByte+0x52>
    return;

  txFifo.data[txFifo.tail++] = byte;
     85a:	20 91 c6 02 	lds	r18, 0x02C6
     85e:	30 91 c7 02 	lds	r19, 0x02C7
     862:	e0 91 cc 02 	lds	r30, 0x02CC
     866:	f0 91 cd 02 	lds	r31, 0x02CD
     86a:	e2 0f       	add	r30, r18
     86c:	f3 1f       	adc	r31, r19
     86e:	80 83       	st	Z, r24
     870:	2f 5f       	subi	r18, 0xFF	; 255
     872:	3f 4f       	sbci	r19, 0xFF	; 255
     874:	30 93 c7 02 	sts	0x02C7, r19
     878:	20 93 c6 02 	sts	0x02C6, r18
  if (txFifo.tail == txFifo.size)
     87c:	24 17       	cp	r18, r20
     87e:	35 07       	cpc	r19, r21
     880:	21 f4       	brne	.+8      	; 0x88a <HAL_UartWriteByte+0x46>
    txFifo.tail = 0;
     882:	10 92 c7 02 	sts	0x02C7, r1
     886:	10 92 c6 02 	sts	0x02C6, r1
  txFifo.bytes++;
     88a:	6f 5f       	subi	r22, 0xFF	; 255
     88c:	7f 4f       	sbci	r23, 0xFF	; 255
     88e:	70 93 cb 02 	sts	0x02CB, r23
     892:	60 93 ca 02 	sts	0x02CA, r22
     896:	08 95       	ret

00000898 <HAL_UartPrint>:
}

/*****************************************************************************
*****************************************************************************/
void HAL_UartPrint(const uint8_t* buffer)
{
     898:	cf 92       	push	r12
     89a:	df 92       	push	r13
     89c:	ff 92       	push	r15
     89e:	0f 93       	push	r16
     8a0:	1f 93       	push	r17
     8a2:	cf 93       	push	r28
     8a4:	df 93       	push	r29
     8a6:	0f 92       	push	r0
     8a8:	cd b7       	in	r28, 0x3d	; 61
     8aa:	de b7       	in	r29, 0x3e	; 62
     8ac:	f8 2e       	mov	r15, r24
	for (int i = 0; i<strlen(buffer);i++)
     8ae:	08 2f       	mov	r16, r24
     8b0:	19 2f       	mov	r17, r25
     8b2:	cc 24       	eor	r12, r12
     8b4:	dd 24       	eor	r13, r13
     8b6:	0a c0       	rjmp	.+20     	; 0x8cc <HAL_UartPrint+0x34>
	{
		HAL_UartWriteByte(buffer[i]);
     8b8:	f8 01       	movw	r30, r16
     8ba:	81 91       	ld	r24, Z+
     8bc:	8f 01       	movw	r16, r30
     8be:	99 83       	std	Y+1, r25	; 0x01
     8c0:	0e 94 22 04 	call	0x844	; 0x844 <HAL_UartWriteByte>

/*****************************************************************************
*****************************************************************************/
void HAL_UartPrint(const uint8_t* buffer)
{
	for (int i = 0; i<strlen(buffer);i++)
     8c4:	08 94       	sec
     8c6:	c1 1c       	adc	r12, r1
     8c8:	d1 1c       	adc	r13, r1
     8ca:	99 81       	ldd	r25, Y+1	; 0x01
     8cc:	af 2d       	mov	r26, r15
     8ce:	b9 2f       	mov	r27, r25
     8d0:	fd 01       	movw	r30, r26
     8d2:	01 90       	ld	r0, Z+
     8d4:	00 20       	and	r0, r0
     8d6:	e9 f7       	brne	.-6      	; 0x8d2 <HAL_UartPrint+0x3a>
     8d8:	31 97       	sbiw	r30, 0x01	; 1
     8da:	ea 1b       	sub	r30, r26
     8dc:	fb 0b       	sbc	r31, r27
     8de:	ce 16       	cp	r12, r30
     8e0:	df 06       	cpc	r13, r31
     8e2:	50 f3       	brcs	.-44     	; 0x8b8 <HAL_UartPrint+0x20>
	{
		HAL_UartWriteByte(buffer[i]);
	}
}
     8e4:	0f 90       	pop	r0
     8e6:	df 91       	pop	r29
     8e8:	cf 91       	pop	r28
     8ea:	1f 91       	pop	r17
     8ec:	0f 91       	pop	r16
     8ee:	ff 90       	pop	r15
     8f0:	df 90       	pop	r13
     8f2:	cf 90       	pop	r12
     8f4:	08 95       	ret

000008f6 <HAL_UartReadByte>:
uint8_t HAL_UartReadByte(void)
{
  uint8_t byte;

  PRAGMA(diag_suppress=Pa082);
  ATOMIC_SECTION_ENTER
     8f6:	9f b7       	in	r25, 0x3f	; 63
     8f8:	f8 94       	cli
    byte = rxFifo.data[rxFifo.head++];
     8fa:	e0 91 c2 02 	lds	r30, 0x02C2
     8fe:	f0 91 c3 02 	lds	r31, 0x02C3
     902:	20 91 ba 02 	lds	r18, 0x02BA
     906:	30 91 bb 02 	lds	r19, 0x02BB
     90a:	e2 0f       	add	r30, r18
     90c:	f3 1f       	adc	r31, r19
     90e:	80 81       	ld	r24, Z
     910:	2f 5f       	subi	r18, 0xFF	; 255
     912:	3f 4f       	sbci	r19, 0xFF	; 255
     914:	30 93 bb 02 	sts	0x02BB, r19
     918:	20 93 ba 02 	sts	0x02BA, r18
    if (rxFifo.head == rxFifo.size)
     91c:	40 91 ba 02 	lds	r20, 0x02BA
     920:	50 91 bb 02 	lds	r21, 0x02BB
     924:	20 91 be 02 	lds	r18, 0x02BE
     928:	30 91 bf 02 	lds	r19, 0x02BF
     92c:	42 17       	cp	r20, r18
     92e:	53 07       	cpc	r21, r19
     930:	21 f4       	brne	.+8      	; 0x93a <HAL_UartReadByte+0x44>
      rxFifo.head = 0;
     932:	10 92 bb 02 	sts	0x02BB, r1
     936:	10 92 ba 02 	sts	0x02BA, r1
    rxFifo.bytes--;
     93a:	20 91 c0 02 	lds	r18, 0x02C0
     93e:	30 91 c1 02 	lds	r19, 0x02C1
     942:	21 50       	subi	r18, 0x01	; 1
     944:	30 40       	sbci	r19, 0x00	; 0
     946:	30 93 c1 02 	sts	0x02C1, r19
     94a:	20 93 c0 02 	sts	0x02C0, r18
  ATOMIC_SECTION_LEAVE
     94e:	9f bf       	out	0x3f, r25	; 63
  PRAGMA(diag_default=Pa082);

  return byte;
}
     950:	08 95       	ret

00000952 <__vector_26>:

/*****************************************************************************
*****************************************************************************/
ISR(USARTx_UDRE_vect)
{
     952:	1f 92       	push	r1
     954:	0f 92       	push	r0
     956:	0f b6       	in	r0, 0x3f	; 63
     958:	0f 92       	push	r0
     95a:	0b b6       	in	r0, 0x3b	; 59
     95c:	0f 92       	push	r0
     95e:	11 24       	eor	r1, r1
     960:	8f 93       	push	r24
     962:	ef 93       	push	r30
     964:	ff 93       	push	r31
  udrEmpty = true;
     966:	81 e0       	ldi	r24, 0x01	; 1
     968:	80 93 b9 02 	sts	0x02B9, r24
  UCSRxB &= ~(1 << UDRIE1);
     96c:	e1 ec       	ldi	r30, 0xC1	; 193
     96e:	f0 e0       	ldi	r31, 0x00	; 0
     970:	80 81       	ld	r24, Z
     972:	8f 7d       	andi	r24, 0xDF	; 223
     974:	80 83       	st	Z, r24
}
     976:	ff 91       	pop	r31
     978:	ef 91       	pop	r30
     97a:	8f 91       	pop	r24
     97c:	0f 90       	pop	r0
     97e:	0b be       	out	0x3b, r0	; 59
     980:	0f 90       	pop	r0
     982:	0f be       	out	0x3f, r0	; 63
     984:	0f 90       	pop	r0
     986:	1f 90       	pop	r1
     988:	18 95       	reti

0000098a <__vector_25>:

/*****************************************************************************
*****************************************************************************/
ISR(USARTx_RX_vect)
{
     98a:	1f 92       	push	r1
     98c:	0f 92       	push	r0
     98e:	0f b6       	in	r0, 0x3f	; 63
     990:	0f 92       	push	r0
     992:	0b b6       	in	r0, 0x3b	; 59
     994:	0f 92       	push	r0
     996:	11 24       	eor	r1, r1
     998:	2f 93       	push	r18
     99a:	3f 93       	push	r19
     99c:	4f 93       	push	r20
     99e:	8f 93       	push	r24
     9a0:	9f 93       	push	r25
     9a2:	ef 93       	push	r30
     9a4:	ff 93       	push	r31
  PRAGMA(diag_suppress=Pa082);

  uint8_t status = UCSRxA;
     9a6:	80 91 c0 00 	lds	r24, 0x00C0
  uint8_t byte = UDRx;
     9aa:	40 91 c6 00 	lds	r20, 0x00C6

  if (0 == (status & ((1 << FE1) | (1 << DOR1) | (1 << UPE1))))
     9ae:	8c 71       	andi	r24, 0x1C	; 28
     9b0:	b1 f5       	brne	.+108    	; 0xa1e <__vector_25+0x94>
  {
    if (rxFifo.bytes == rxFifo.size)
     9b2:	20 91 c0 02 	lds	r18, 0x02C0
     9b6:	30 91 c1 02 	lds	r19, 0x02C1
     9ba:	80 91 be 02 	lds	r24, 0x02BE
     9be:	90 91 bf 02 	lds	r25, 0x02BF
     9c2:	28 17       	cp	r18, r24
     9c4:	39 07       	cpc	r19, r25
     9c6:	59 f1       	breq	.+86     	; 0xa1e <__vector_25+0x94>
      return;

    rxFifo.data[rxFifo.tail++] = byte;
     9c8:	e0 91 c2 02 	lds	r30, 0x02C2
     9cc:	f0 91 c3 02 	lds	r31, 0x02C3
     9d0:	80 91 bc 02 	lds	r24, 0x02BC
     9d4:	90 91 bd 02 	lds	r25, 0x02BD
     9d8:	e8 0f       	add	r30, r24
     9da:	f9 1f       	adc	r31, r25
     9dc:	40 83       	st	Z, r20
     9de:	01 96       	adiw	r24, 0x01	; 1
     9e0:	90 93 bd 02 	sts	0x02BD, r25
     9e4:	80 93 bc 02 	sts	0x02BC, r24
    if (rxFifo.tail == rxFifo.size)
     9e8:	20 91 bc 02 	lds	r18, 0x02BC
     9ec:	30 91 bd 02 	lds	r19, 0x02BD
     9f0:	80 91 be 02 	lds	r24, 0x02BE
     9f4:	90 91 bf 02 	lds	r25, 0x02BF
     9f8:	28 17       	cp	r18, r24
     9fa:	39 07       	cpc	r19, r25
     9fc:	21 f4       	brne	.+8      	; 0xa06 <__vector_25+0x7c>
      rxFifo.tail = 0;
     9fe:	10 92 bd 02 	sts	0x02BD, r1
     a02:	10 92 bc 02 	sts	0x02BC, r1
    rxFifo.bytes++;
     a06:	80 91 c0 02 	lds	r24, 0x02C0
     a0a:	90 91 c1 02 	lds	r25, 0x02C1
     a0e:	01 96       	adiw	r24, 0x01	; 1
     a10:	90 93 c1 02 	sts	0x02C1, r25
     a14:	80 93 c0 02 	sts	0x02C0, r24

    newData = true;
     a18:	81 e0       	ldi	r24, 0x01	; 1
     a1a:	80 93 b8 02 	sts	0x02B8, r24
  }

  PRAGMA(diag_default=Pa082);
}
     a1e:	ff 91       	pop	r31
     a20:	ef 91       	pop	r30
     a22:	9f 91       	pop	r25
     a24:	8f 91       	pop	r24
     a26:	4f 91       	pop	r20
     a28:	3f 91       	pop	r19
     a2a:	2f 91       	pop	r18
     a2c:	0f 90       	pop	r0
     a2e:	0b be       	out	0x3b, r0	; 59
     a30:	0f 90       	pop	r0
     a32:	0f be       	out	0x3f, r0	; 63
     a34:	0f 90       	pop	r0
     a36:	1f 90       	pop	r1
     a38:	18 95       	reti

00000a3a <HAL_UartTaskHandler>:

/*****************************************************************************
*****************************************************************************/
void HAL_UartTaskHandler(void)
{
  if (txFifo.bytes && udrEmpty)
     a3a:	80 91 ca 02 	lds	r24, 0x02CA
     a3e:	90 91 cb 02 	lds	r25, 0x02CB
     a42:	00 97       	sbiw	r24, 0x00	; 0
     a44:	89 f1       	breq	.+98     	; 0xaa8 <HAL_UartTaskHandler+0x6e>
     a46:	20 91 b9 02 	lds	r18, 0x02B9
     a4a:	22 23       	and	r18, r18
     a4c:	69 f1       	breq	.+90     	; 0xaa8 <HAL_UartTaskHandler+0x6e>
  {
    uint8_t byte;

    byte = txFifo.data[txFifo.head++];
     a4e:	20 91 c4 02 	lds	r18, 0x02C4
     a52:	30 91 c5 02 	lds	r19, 0x02C5
     a56:	e0 91 cc 02 	lds	r30, 0x02CC
     a5a:	f0 91 cd 02 	lds	r31, 0x02CD
     a5e:	e2 0f       	add	r30, r18
     a60:	f3 1f       	adc	r31, r19
     a62:	60 81       	ld	r22, Z
     a64:	2f 5f       	subi	r18, 0xFF	; 255
     a66:	3f 4f       	sbci	r19, 0xFF	; 255
     a68:	30 93 c5 02 	sts	0x02C5, r19
     a6c:	20 93 c4 02 	sts	0x02C4, r18
    if (txFifo.head == txFifo.size)
     a70:	40 91 c8 02 	lds	r20, 0x02C8
     a74:	50 91 c9 02 	lds	r21, 0x02C9
     a78:	24 17       	cp	r18, r20
     a7a:	35 07       	cpc	r19, r21
     a7c:	21 f4       	brne	.+8      	; 0xa86 <HAL_UartTaskHandler+0x4c>
      txFifo.head = 0;
     a7e:	10 92 c5 02 	sts	0x02C5, r1
     a82:	10 92 c4 02 	sts	0x02C4, r1
    txFifo.bytes--;
     a86:	01 97       	sbiw	r24, 0x01	; 1
     a88:	90 93 cb 02 	sts	0x02CB, r25
     a8c:	80 93 ca 02 	sts	0x02CA, r24

    ATOMIC_SECTION_ENTER
     a90:	9f b7       	in	r25, 0x3f	; 63
     a92:	f8 94       	cli
      UDRx = byte;
     a94:	60 93 c6 00 	sts	0x00C6, r22
      UCSRxB |= (1 << UDRIE1);
     a98:	80 91 c1 00 	lds	r24, 0x00C1
     a9c:	80 62       	ori	r24, 0x20	; 32
     a9e:	80 93 c1 00 	sts	0x00C1, r24
      udrEmpty = false;
     aa2:	10 92 b9 02 	sts	0x02B9, r1
    ATOMIC_SECTION_LEAVE
     aa6:	9f bf       	out	0x3f, r25	; 63

  {
    uint16_t bytes;
    bool new;

    ATOMIC_SECTION_ENTER
     aa8:	3f b7       	in	r19, 0x3f	; 63
     aaa:	f8 94       	cli
      new = newData;
     aac:	20 91 b8 02 	lds	r18, 0x02B8
      newData = false;
     ab0:	10 92 b8 02 	sts	0x02B8, r1
      bytes = rxFifo.bytes;
     ab4:	80 91 c0 02 	lds	r24, 0x02C0
     ab8:	90 91 c1 02 	lds	r25, 0x02C1
    ATOMIC_SECTION_LEAVE
     abc:	3f bf       	out	0x3f, r19	; 63

    if (new)
     abe:	22 23       	and	r18, r18
     ac0:	11 f0       	breq	.+4      	; 0xac6 <HAL_UartTaskHandler+0x8c>
      HAL_UartBytesReceived(bytes);
     ac2:	0e 94 c5 0f 	call	0x1f8a	; 0x1f8a <HAL_UartBytesReceived>
     ac6:	08 95       	ret

00000ac8 <NWK_Init>:

/*****************************************************************************
*****************************************************************************/
void NWK_Init(void)
{
  nwkIb.nwkSeqNum = 0;
     ac8:	10 92 fe 08 	sts	0x08FE, r1
  nwkIb.macSeqNum = 0;
     acc:	10 92 ff 08 	sts	0x08FF, r1
  nwkIb.addr = 0;
     ad0:	ea ef       	ldi	r30, 0xFA	; 250
     ad2:	f8 e0       	ldi	r31, 0x08	; 8
     ad4:	11 82       	std	Z+1, r1	; 0x01
     ad6:	10 82       	st	Z, r1

  for (uint8_t i = 0; i < NWK_MAX_ENDPOINTS_AMOUNT; i++)
    nwkIb.endpoint[i] = NULL;
     ad8:	17 82       	std	Z+7, r1	; 0x07
     ada:	16 82       	std	Z+6, r1	; 0x06
     adc:	11 86       	std	Z+9, r1	; 0x09
     ade:	10 86       	std	Z+8, r1	; 0x08
     ae0:	13 86       	std	Z+11, r1	; 0x0b
     ae2:	12 86       	std	Z+10, r1	; 0x0a

  nwkTxInit();
     ae4:	0e 94 d3 0a 	call	0x15a6	; 0x15a6 <nwkTxInit>
  nwkRxInit();
     ae8:	0e 94 6b 08 	call	0x10d6	; 0x10d6 <nwkRxInit>
  nwkFrameInit();
     aec:	0e 94 86 06 	call	0xd0c	; 0xd0c <nwkFrameInit>
  nwkDataReqInit();
     af0:	0e 94 d5 05 	call	0xbaa	; 0xbaa <nwkDataReqInit>

#ifdef NWK_ENABLE_ROUTING
  nwkRouteInit();
     af4:	0e 94 10 07 	call	0xe20	; 0xe20 <nwkRouteInit>
#endif

#ifdef NWK_ENABLE_SECURITY
  nwkSecurityInit();
#endif
}
     af8:	08 95       	ret

00000afa <NWK_SetAddr>:

/*****************************************************************************
*****************************************************************************/
void NWK_SetAddr(uint16_t addr)
{
  nwkIb.addr = addr;
     afa:	90 93 fb 08 	sts	0x08FB, r25
     afe:	80 93 fa 08 	sts	0x08FA, r24
  PHY_SetShortAddr(addr);
     b02:	0e 94 b8 0c 	call	0x1970	; 0x1970 <PHY_SetShortAddr>
}
     b06:	08 95       	ret

00000b08 <NWK_SetPanId>:

/*****************************************************************************
*****************************************************************************/
void NWK_SetPanId(uint16_t panId)
{
  nwkIb.panId = panId;
     b08:	90 93 fd 08 	sts	0x08FD, r25
     b0c:	80 93 fc 08 	sts	0x08FC, r24
  PHY_SetPanId(panId);
     b10:	0e 94 ae 0c 	call	0x195c	; 0x195c <PHY_SetPanId>
}
     b14:	08 95       	ret

00000b16 <NWK_OpenEndpoint>:

/*****************************************************************************
*****************************************************************************/
void NWK_OpenEndpoint(uint8_t id, bool (*handler)(NWK_DataInd_t *ind))
{
  nwkIb.endpoint[id] = handler;
     b16:	e8 2f       	mov	r30, r24
     b18:	f0 e0       	ldi	r31, 0x00	; 0
     b1a:	ee 0f       	add	r30, r30
     b1c:	ff 1f       	adc	r31, r31
     b1e:	e0 50       	subi	r30, 0x00	; 0
     b20:	f7 4f       	sbci	r31, 0xF7	; 247
     b22:	71 83       	std	Z+1, r23	; 0x01
     b24:	60 83       	st	Z, r22
}
     b26:	08 95       	ret

00000b28 <NWK_Busy>:

/*****************************************************************************
*****************************************************************************/
bool NWK_Busy(void)
{
  return nwkRxBusy() || nwkTxBusy() || nwkDataReqBusy() || PHY_Busy();
     b28:	0e 94 c0 08 	call	0x1180	; 0x1180 <nwkRxBusy>
     b2c:	88 23       	and	r24, r24
     b2e:	59 f4       	brne	.+22     	; 0xb46 <NWK_Busy+0x1e>
     b30:	0e 94 97 0b 	call	0x172e	; 0x172e <nwkTxBusy>
     b34:	88 23       	and	r24, r24
     b36:	39 f4       	brne	.+14     	; 0xb46 <NWK_Busy+0x1e>
     b38:	0e 94 ef 05 	call	0xbde	; 0xbde <nwkDataReqBusy>
     b3c:	88 23       	and	r24, r24
     b3e:	31 f4       	brne	.+12     	; 0xb4c <NWK_Busy+0x24>
     b40:	0e 94 c2 0c 	call	0x1984	; 0x1984 <PHY_Busy>
     b44:	08 95       	ret
     b46:	81 e0       	ldi	r24, 0x01	; 1
     b48:	90 e0       	ldi	r25, 0x00	; 0
     b4a:	08 95       	ret
     b4c:	81 e0       	ldi	r24, 0x01	; 1
     b4e:	90 e0       	ldi	r25, 0x00	; 0
}
     b50:	08 95       	ret

00000b52 <NWK_SleepReq>:

/*****************************************************************************
*****************************************************************************/
void NWK_SleepReq(void)
{
  PHY_Sleep();
     b52:	0e 94 d2 0c 	call	0x19a4	; 0x19a4 <PHY_Sleep>
}
     b56:	08 95       	ret

00000b58 <NWK_WakeupReq>:

/*****************************************************************************
*****************************************************************************/
void NWK_WakeupReq(void)
{
  PHY_Wakeup();
     b58:	0e 94 de 0c 	call	0x19bc	; 0x19bc <PHY_Wakeup>
}
     b5c:	08 95       	ret

00000b5e <NWK_TaskHandler>:

/*****************************************************************************
*****************************************************************************/
void NWK_TaskHandler(void)
{
  nwkRxTaskHandler();
     b5e:	0e 94 c7 08 	call	0x118e	; 0x118e <nwkRxTaskHandler>
  nwkTxTaskHandler();
     b62:	0e 94 ba 0b 	call	0x1774	; 0x1774 <nwkTxTaskHandler>
  nwkDataReqTaskHandler();
     b66:	0e 94 f9 05 	call	0xbf2	; 0xbf2 <nwkDataReqTaskHandler>
#ifdef NWK_ENABLE_SECURITY
  nwkSecurityTaskHandler();
#endif
}
     b6a:	08 95       	ret

00000b6c <nwkDataReqTxConf>:

/*****************************************************************************
*****************************************************************************/
static void nwkDataReqTxConf(NwkFrame_t *frame)
{
  for (NWK_DataReq_t *req = nwkDataReqQueue; req; req = req->next)
     b6c:	e0 91 d0 03 	lds	r30, 0x03D0
     b70:	f0 91 d1 03 	lds	r31, 0x03D1
     b74:	15 c0       	rjmp	.+42     	; 0xba0 <nwkDataReqTxConf+0x34>
  {
    if (req->frame == frame)
     b76:	22 81       	ldd	r18, Z+2	; 0x02
     b78:	33 81       	ldd	r19, Z+3	; 0x03
     b7a:	28 17       	cp	r18, r24
     b7c:	39 07       	cpc	r19, r25
     b7e:	69 f4       	brne	.+26     	; 0xb9a <nwkDataReqTxConf+0x2e>
    {
      req->status = frame->tx.status;
     b80:	dc 01       	movw	r26, r24
     b82:	a1 58       	subi	r26, 0x81	; 129
     b84:	bf 4f       	sbci	r27, 0xFF	; 255
     b86:	2c 91       	ld	r18, X
     b88:	27 87       	std	Z+15, r18	; 0x0f
      req->control = frame->tx.control;
     b8a:	dc 01       	movw	r26, r24
     b8c:	ae 57       	subi	r26, 0x7E	; 126
     b8e:	bf 4f       	sbci	r27, 0xFF	; 255
     b90:	2c 91       	ld	r18, X
     b92:	20 8b       	std	Z+16, r18	; 0x10
      req->state = NWK_DATA_REQ_STATE_CONFIRM;
     b94:	22 e0       	ldi	r18, 0x02	; 2
     b96:	24 83       	std	Z+4, r18	; 0x04
      break;
     b98:	05 c0       	rjmp	.+10     	; 0xba4 <nwkDataReqTxConf+0x38>

/*****************************************************************************
*****************************************************************************/
static void nwkDataReqTxConf(NwkFrame_t *frame)
{
  for (NWK_DataReq_t *req = nwkDataReqQueue; req; req = req->next)
     b9a:	01 90       	ld	r0, Z+
     b9c:	f0 81       	ld	r31, Z
     b9e:	e0 2d       	mov	r30, r0
     ba0:	30 97       	sbiw	r30, 0x00	; 0
     ba2:	49 f7       	brne	.-46     	; 0xb76 <nwkDataReqTxConf+0xa>
      req->state = NWK_DATA_REQ_STATE_CONFIRM;
      break;
    }
  }

  nwkFrameFree(frame);
     ba4:	0e 94 b3 06 	call	0xd66	; 0xd66 <nwkFrameFree>
}
     ba8:	08 95       	ret

00000baa <nwkDataReqInit>:

/*****************************************************************************
*****************************************************************************/
void nwkDataReqInit(void)
{
  nwkDataReqQueue = NULL;
     baa:	10 92 d1 03 	sts	0x03D1, r1
     bae:	10 92 d0 03 	sts	0x03D0, r1
}
     bb2:	08 95       	ret

00000bb4 <NWK_DataReq>:

/*****************************************************************************
*****************************************************************************/
void NWK_DataReq(NWK_DataReq_t *req)
{
     bb4:	fc 01       	movw	r30, r24
  req->state = NWK_DATA_REQ_STATE_INITIAL;
     bb6:	14 82       	std	Z+4, r1	; 0x04
  req->status = NWK_SUCCESS_STATUS;
     bb8:	17 86       	std	Z+15, r1	; 0x0f
  req->frame = NULL;
     bba:	13 82       	std	Z+3, r1	; 0x03
     bbc:	12 82       	std	Z+2, r1	; 0x02

  if (NULL == nwkDataReqQueue)
     bbe:	80 91 d0 03 	lds	r24, 0x03D0
     bc2:	90 91 d1 03 	lds	r25, 0x03D1
     bc6:	00 97       	sbiw	r24, 0x00	; 0
     bc8:	19 f4       	brne	.+6      	; 0xbd0 <NWK_DataReq+0x1c>
  {
    req->next = NULL;
     bca:	11 82       	std	Z+1, r1	; 0x01
     bcc:	10 82       	st	Z, r1
     bce:	02 c0       	rjmp	.+4      	; 0xbd4 <NWK_DataReq+0x20>
    nwkDataReqQueue = req;
  }
  else
  {
    req->next = nwkDataReqQueue;
     bd0:	91 83       	std	Z+1, r25	; 0x01
     bd2:	80 83       	st	Z, r24
    nwkDataReqQueue = req;
     bd4:	f0 93 d1 03 	sts	0x03D1, r31
     bd8:	e0 93 d0 03 	sts	0x03D0, r30
     bdc:	08 95       	ret

00000bde <nwkDataReqBusy>:

/*****************************************************************************
*****************************************************************************/
bool nwkDataReqBusy(void)
{
  return NULL != nwkDataReqQueue;
     bde:	81 e0       	ldi	r24, 0x01	; 1
     be0:	20 91 d0 03 	lds	r18, 0x03D0
     be4:	30 91 d1 03 	lds	r19, 0x03D1
     be8:	21 15       	cp	r18, r1
     bea:	31 05       	cpc	r19, r1
     bec:	09 f4       	brne	.+2      	; 0xbf0 <nwkDataReqBusy+0x12>
     bee:	80 e0       	ldi	r24, 0x00	; 0
}
     bf0:	08 95       	ret

00000bf2 <nwkDataReqTaskHandler>:

/*****************************************************************************
*****************************************************************************/
void nwkDataReqTaskHandler(void)
{
     bf2:	0f 93       	push	r16
     bf4:	1f 93       	push	r17
     bf6:	cf 93       	push	r28
     bf8:	df 93       	push	r29
  for (NWK_DataReq_t *req = nwkDataReqQueue; req; req = req->next)
     bfa:	e0 91 d0 03 	lds	r30, 0x03D0
     bfe:	f0 91 d1 03 	lds	r31, 0x03D1
     c02:	ef 01       	movw	r28, r30
     c04:	7b c0       	rjmp	.+246    	; 0xcfc <nwkDataReqTaskHandler+0x10a>
  {
    switch (req->state)
     c06:	8c 81       	ldd	r24, Y+4	; 0x04
     c08:	88 23       	and	r24, r24
     c0a:	21 f0       	breq	.+8      	; 0xc14 <nwkDataReqTaskHandler+0x22>
     c0c:	82 30       	cpi	r24, 0x02	; 2
     c0e:	09 f0       	breq	.+2      	; 0xc12 <nwkDataReqTaskHandler+0x20>
     c10:	72 c0       	rjmp	.+228    	; 0xcf6 <nwkDataReqTaskHandler+0x104>
     c12:	58 c0       	rjmp	.+176    	; 0xcc4 <nwkDataReqTaskHandler+0xd2>
#ifdef NWK_ENABLE_SECURITY
  if (req->options & NWK_OPT_ENABLE_SECURITY)
    size += NWK_SECURITY_MIC_SIZE;
#endif

  if (NULL == (frame = nwkFrameAlloc(size)))
     c14:	8c 85       	ldd	r24, Y+12	; 0x0c
     c16:	0e 94 8d 06 	call	0xd1a	; 0xd1a <nwkFrameAlloc>
     c1a:	8c 01       	movw	r16, r24
     c1c:	00 97       	sbiw	r24, 0x00	; 0
     c1e:	21 f4       	brne	.+8      	; 0xc28 <nwkDataReqTaskHandler+0x36>
  {
    req->state = NWK_DATA_REQ_STATE_CONFIRM;
     c20:	82 e0       	ldi	r24, 0x02	; 2
     c22:	8c 83       	std	Y+4, r24	; 0x04
    req->status = NWK_OUT_OF_MEMORY_STATUS;
     c24:	8f 87       	std	Y+15, r24	; 0x0f
     c26:	6d c0       	rjmp	.+218    	; 0xd02 <nwkDataReqTaskHandler+0x110>
    return;
  }

  req->frame = frame;
     c28:	9b 83       	std	Y+3, r25	; 0x03
     c2a:	8a 83       	std	Y+2, r24	; 0x02
  req->state = NWK_DATA_REQ_STATE_WAIT_CONF;
     c2c:	81 e0       	ldi	r24, 0x01	; 1
     c2e:	8c 83       	std	Y+4, r24	; 0x04

  frame->tx.confirm = nwkDataReqTxConf;
     c30:	f8 01       	movw	r30, r16
     c32:	ed 57       	subi	r30, 0x7D	; 125
     c34:	ff 4f       	sbci	r31, 0xFF	; 255
     c36:	86 eb       	ldi	r24, 0xB6	; 182
     c38:	95 e0       	ldi	r25, 0x05	; 5
     c3a:	91 83       	std	Z+1, r25	; 0x01
     c3c:	80 83       	st	Z, r24
  frame->tx.control = req->options & NWK_OPT_BROADCAST_PAN_ID ? NWK_TX_CONTROL_BROADCAST_PAN_ID : 0;
     c3e:	f8 01       	movw	r30, r16
     c40:	ee 57       	subi	r30, 0x7E	; 126
     c42:	ff 4f       	sbci	r31, 0xFF	; 255
     c44:	99 85       	ldd	r25, Y+9	; 0x09
     c46:	81 e0       	ldi	r24, 0x01	; 1
     c48:	92 ff       	sbrs	r25, 2
     c4a:	80 e0       	ldi	r24, 0x00	; 0
     c4c:	80 83       	st	Z, r24

  frame->data.header.nwkFcf.ackRequest = req->options & NWK_OPT_ACK_REQUEST ? 1 : 0;
     c4e:	99 85       	ldd	r25, Y+9	; 0x09
     c50:	91 70       	andi	r25, 0x01	; 1
     c52:	f8 01       	movw	r30, r16
     c54:	83 85       	ldd	r24, Z+11	; 0x0b
     c56:	8e 7f       	andi	r24, 0xFE	; 254
     c58:	89 2b       	or	r24, r25
     c5a:	83 87       	std	Z+11, r24	; 0x0b
#ifdef NWK_ENABLE_SECURITY
  frame->data.header.nwkFcf.securityEnabled = req->options & NWK_OPT_ENABLE_SECURITY ? 1 : 0;
#endif
  frame->data.header.nwkFcf.linkLocal = req->options & NWK_OPT_LINK_LOCAL ? 1 : 0;
     c5c:	99 85       	ldd	r25, Y+9	; 0x09
     c5e:	81 e0       	ldi	r24, 0x01	; 1
     c60:	93 ff       	sbrs	r25, 3
     c62:	80 e0       	ldi	r24, 0x00	; 0
     c64:	98 2f       	mov	r25, r24
     c66:	99 0f       	add	r25, r25
     c68:	99 0f       	add	r25, r25
     c6a:	f8 01       	movw	r30, r16
     c6c:	83 85       	ldd	r24, Z+11	; 0x0b
     c6e:	83 70       	andi	r24, 0x03	; 3
  frame->data.header.nwkFcf.reserved = 0;
     c70:	89 2b       	or	r24, r25
     c72:	83 87       	std	Z+11, r24	; 0x0b
  frame->data.header.nwkSeq = ++nwkIb.nwkSeqNum;
     c74:	80 91 fe 08 	lds	r24, 0x08FE
     c78:	8f 5f       	subi	r24, 0xFF	; 255
     c7a:	80 93 fe 08 	sts	0x08FE, r24
     c7e:	84 87       	std	Z+12, r24	; 0x0c
  frame->data.header.nwkSrcAddr = nwkIb.addr;
     c80:	80 91 fa 08 	lds	r24, 0x08FA
     c84:	90 91 fb 08 	lds	r25, 0x08FB
     c88:	96 87       	std	Z+14, r25	; 0x0e
     c8a:	85 87       	std	Z+13, r24	; 0x0d
  frame->data.header.nwkDstAddr = req->dstAddr;
     c8c:	8d 81       	ldd	r24, Y+5	; 0x05
     c8e:	9e 81       	ldd	r25, Y+6	; 0x06
     c90:	90 8b       	std	Z+16, r25	; 0x10
     c92:	87 87       	std	Z+15, r24	; 0x0f
  frame->data.header.nwkSrcEndpoint = req->srcEndpoint;
     c94:	98 85       	ldd	r25, Y+8	; 0x08
     c96:	9f 70       	andi	r25, 0x0F	; 15
     c98:	81 89       	ldd	r24, Z+17	; 0x11
     c9a:	80 7f       	andi	r24, 0xF0	; 240
     c9c:	89 2b       	or	r24, r25
     c9e:	81 8b       	std	Z+17, r24	; 0x11
  frame->data.header.nwkDstEndpoint = req->dstEndpoint;
     ca0:	9f 81       	ldd	r25, Y+7	; 0x07
     ca2:	92 95       	swap	r25
     ca4:	90 7f       	andi	r25, 0xF0	; 240
     ca6:	8f 70       	andi	r24, 0x0F	; 15
     ca8:	89 2b       	or	r24, r25
     caa:	81 8b       	std	Z+17, r24	; 0x11

  memcpy(frame->data.payload, req->data, req->size);
     cac:	c8 01       	movw	r24, r16
     cae:	42 96       	adiw	r24, 0x12	; 18
     cb0:	4c 85       	ldd	r20, Y+12	; 0x0c
     cb2:	6a 85       	ldd	r22, Y+10	; 0x0a
     cb4:	7b 85       	ldd	r23, Y+11	; 0x0b
     cb6:	50 e0       	ldi	r21, 0x00	; 0
     cb8:	0e 94 3d 12 	call	0x247a	; 0x247a <memcpy>

  nwkTxFrame(frame);
     cbc:	c8 01       	movw	r24, r16
     cbe:	0e 94 ee 0a 	call	0x15dc	; 0x15dc <nwkTxFrame>
     cc2:	1f c0       	rjmp	.+62     	; 0xd02 <nwkDataReqTaskHandler+0x110>

/*****************************************************************************
*****************************************************************************/
static void nwkDataReqConfirm(NWK_DataReq_t *req)
{
  if (nwkDataReqQueue == req)
     cc4:	ec 17       	cp	r30, r28
     cc6:	fd 07       	cpc	r31, r29
     cc8:	41 f4       	brne	.+16     	; 0xcda <nwkDataReqTaskHandler+0xe8>
  {
    nwkDataReqQueue = nwkDataReqQueue->next;
     cca:	88 81       	ld	r24, Y
     ccc:	99 81       	ldd	r25, Y+1	; 0x01
     cce:	90 93 d1 03 	sts	0x03D1, r25
     cd2:	80 93 d0 03 	sts	0x03D0, r24
     cd6:	0a c0       	rjmp	.+20     	; 0xcec <nwkDataReqTaskHandler+0xfa>
  }
  else
  {
    NWK_DataReq_t *prev = nwkDataReqQueue;
    while (prev->next != req)
     cd8:	fc 01       	movw	r30, r24
     cda:	80 81       	ld	r24, Z
     cdc:	91 81       	ldd	r25, Z+1	; 0x01
     cde:	8c 17       	cp	r24, r28
     ce0:	9d 07       	cpc	r25, r29
     ce2:	d1 f7       	brne	.-12     	; 0xcd8 <nwkDataReqTaskHandler+0xe6>
      prev = prev->next;
    prev->next = ((NWK_DataReq_t *)prev->next)->next;
     ce4:	88 81       	ld	r24, Y
     ce6:	99 81       	ldd	r25, Y+1	; 0x01
     ce8:	91 83       	std	Z+1, r25	; 0x01
     cea:	80 83       	st	Z, r24
  }

  req->confirm(req);
     cec:	ed 85       	ldd	r30, Y+13	; 0x0d
     cee:	fe 85       	ldd	r31, Y+14	; 0x0e
     cf0:	ce 01       	movw	r24, r28
     cf2:	09 95       	icall
     cf4:	06 c0       	rjmp	.+12     	; 0xd02 <nwkDataReqTaskHandler+0x110>

/*****************************************************************************
*****************************************************************************/
void nwkDataReqTaskHandler(void)
{
  for (NWK_DataReq_t *req = nwkDataReqQueue; req; req = req->next)
     cf6:	09 90       	ld	r0, Y+
     cf8:	d8 81       	ld	r29, Y
     cfa:	c0 2d       	mov	r28, r0
     cfc:	20 97       	sbiw	r28, 0x00	; 0
     cfe:	09 f0       	breq	.+2      	; 0xd02 <nwkDataReqTaskHandler+0x110>
     d00:	82 cf       	rjmp	.-252    	; 0xc06 <nwkDataReqTaskHandler+0x14>

      default:
        break;
    };
  }
}
     d02:	df 91       	pop	r29
     d04:	cf 91       	pop	r28
     d06:	1f 91       	pop	r17
     d08:	0f 91       	pop	r16
     d0a:	08 95       	ret

00000d0c <nwkFrameInit>:
/*****************************************************************************
*****************************************************************************/
void nwkFrameInit(void)
{
  for (int i = 0; i < NWK_BUFFERS_AMOUNT; i++)
    nwkFrameFrames[i].state = NWK_FRAME_STATE_FREE;
     d0c:	10 92 d2 03 	sts	0x03D2, r1
     d10:	10 92 57 04 	sts	0x0457, r1
     d14:	10 92 dc 04 	sts	0x04DC, r1
}
     d18:	08 95       	ret

00000d1a <nwkFrameAlloc>:
*****************************************************************************/
NwkFrame_t *nwkFrameAlloc(uint8_t size)
{
  for (int i = 0; i < NWK_BUFFERS_AMOUNT; i++)
  {
    if (NWK_FRAME_STATE_FREE == nwkFrameFrames[i].state)
     d1a:	90 91 d2 03 	lds	r25, 0x03D2
     d1e:	99 23       	and	r25, r25
     d20:	59 f0       	breq	.+22     	; 0xd38 <nwkFrameAlloc+0x1e>
     d22:	90 91 57 04 	lds	r25, 0x0457
     d26:	99 23       	and	r25, r25
     d28:	51 f0       	breq	.+20     	; 0xd3e <nwkFrameAlloc+0x24>
     d2a:	90 91 dc 04 	lds	r25, 0x04DC
     d2e:	99 23       	and	r25, r25
     d30:	b9 f4       	brne	.+46     	; 0xd60 <nwkFrameAlloc+0x46>

/*****************************************************************************
*****************************************************************************/
NwkFrame_t *nwkFrameAlloc(uint8_t size)
{
  for (int i = 0; i < NWK_BUFFERS_AMOUNT; i++)
     d32:	22 e0       	ldi	r18, 0x02	; 2
     d34:	30 e0       	ldi	r19, 0x00	; 0
     d36:	05 c0       	rjmp	.+10     	; 0xd42 <nwkFrameAlloc+0x28>
     d38:	20 e0       	ldi	r18, 0x00	; 0
     d3a:	30 e0       	ldi	r19, 0x00	; 0
     d3c:	02 c0       	rjmp	.+4      	; 0xd42 <nwkFrameAlloc+0x28>
     d3e:	21 e0       	ldi	r18, 0x01	; 1
     d40:	30 e0       	ldi	r19, 0x00	; 0
  {
    if (NWK_FRAME_STATE_FREE == nwkFrameFrames[i].state)
    {
      nwkFrameFrames[i].size = sizeof(NwkFrameHeader_t) + size;
     d42:	45 e8       	ldi	r20, 0x85	; 133
     d44:	50 e0       	ldi	r21, 0x00	; 0
     d46:	24 9f       	mul	r18, r20
     d48:	f0 01       	movw	r30, r0
     d4a:	25 9f       	mul	r18, r21
     d4c:	f0 0d       	add	r31, r0
     d4e:	34 9f       	mul	r19, r20
     d50:	f0 0d       	add	r31, r0
     d52:	11 24       	eor	r1, r1
     d54:	ee 52       	subi	r30, 0x2E	; 46
     d56:	fc 4f       	sbci	r31, 0xFC	; 252
     d58:	80 5f       	subi	r24, 0xF0	; 240
     d5a:	81 83       	std	Z+1, r24	; 0x01
      return &nwkFrameFrames[i];
     d5c:	cf 01       	movw	r24, r30
     d5e:	08 95       	ret
    }
  }
  return NULL;
     d60:	80 e0       	ldi	r24, 0x00	; 0
     d62:	90 e0       	ldi	r25, 0x00	; 0
}
     d64:	08 95       	ret

00000d66 <nwkFrameFree>:

/*****************************************************************************
*****************************************************************************/
void nwkFrameFree(NwkFrame_t *frame)
{
  frame->state = NWK_FRAME_STATE_FREE;
     d66:	fc 01       	movw	r30, r24
     d68:	10 82       	st	Z, r1
}
     d6a:	08 95       	ret

00000d6c <nwkFrameByIndex>:

/*****************************************************************************
*****************************************************************************/
NwkFrame_t *nwkFrameByIndex(uint8_t i)
{
  return &nwkFrameFrames[i];
     d6c:	48 2f       	mov	r20, r24
     d6e:	50 e0       	ldi	r21, 0x00	; 0
     d70:	25 e8       	ldi	r18, 0x85	; 133
     d72:	30 e0       	ldi	r19, 0x00	; 0
     d74:	42 9f       	mul	r20, r18
     d76:	c0 01       	movw	r24, r0
     d78:	43 9f       	mul	r20, r19
     d7a:	90 0d       	add	r25, r0
     d7c:	52 9f       	mul	r21, r18
     d7e:	90 0d       	add	r25, r0
     d80:	11 24       	eor	r1, r1
     d82:	8e 52       	subi	r24, 0x2E	; 46
     d84:	9c 4f       	sbci	r25, 0xFC	; 252
}
     d86:	08 95       	ret

00000d88 <nwkFrameCommandInit>:

/*****************************************************************************
*****************************************************************************/
void nwkFrameCommandInit(NwkFrame_t *frame)
{
     d88:	fc 01       	movw	r30, r24
  frame->tx.status = NWK_SUCCESS_STATUS;
     d8a:	dc 01       	movw	r26, r24
     d8c:	a1 58       	subi	r26, 0x81	; 129
     d8e:	bf 4f       	sbci	r27, 0xFF	; 255
     d90:	1c 92       	st	X, r1
  frame->tx.timeout = 0;
     d92:	dc 01       	movw	r26, r24
     d94:	a0 58       	subi	r26, 0x80	; 128
     d96:	bf 4f       	sbci	r27, 0xFF	; 255
     d98:	1d 92       	st	X+, r1
     d9a:	1c 92       	st	X, r1
  frame->tx.control = 0;
     d9c:	dc 01       	movw	r26, r24
     d9e:	ae 57       	subi	r26, 0x7E	; 126
     da0:	bf 4f       	sbci	r27, 0xFF	; 255
     da2:	1c 92       	st	X, r1
  frame->tx.confirm = NULL;
     da4:	dc 01       	movw	r26, r24
     da6:	ad 57       	subi	r26, 0x7D	; 125
     da8:	bf 4f       	sbci	r27, 0xFF	; 255
     daa:	11 96       	adiw	r26, 0x01	; 1
     dac:	1c 92       	st	X, r1
     dae:	1e 92       	st	-X, r1

  frame->data.header.nwkFcf.ackRequest = 0;
  frame->data.header.nwkFcf.securityEnabled = 0;
  frame->data.header.nwkFcf.linkLocal = 0;
  frame->data.header.nwkFcf.reserved = 0;
     db0:	13 86       	std	Z+11, r1	; 0x0b
  frame->data.header.nwkSeq = ++nwkIb.nwkSeqNum;
     db2:	80 91 fe 08 	lds	r24, 0x08FE
     db6:	8f 5f       	subi	r24, 0xFF	; 255
     db8:	80 93 fe 08 	sts	0x08FE, r24
     dbc:	84 87       	std	Z+12, r24	; 0x0c
  frame->data.header.nwkSrcAddr = nwkIb.addr;
     dbe:	80 91 fa 08 	lds	r24, 0x08FA
     dc2:	90 91 fb 08 	lds	r25, 0x08FB
     dc6:	96 87       	std	Z+14, r25	; 0x0e
     dc8:	85 87       	std	Z+13, r24	; 0x0d
  frame->data.header.nwkDstAddr = 0;
     dca:	10 8a       	std	Z+16, r1	; 0x10
     dcc:	17 86       	std	Z+15, r1	; 0x0f
  frame->data.header.nwkSrcEndpoint = 0;
  frame->data.header.nwkDstEndpoint = 0;
     dce:	11 8a       	std	Z+17, r1	; 0x11
}
     dd0:	08 95       	ret

00000dd2 <nwkRouteFindRecord>:
      return &nwkRouteTable[i];

  if (NWK_ROUTE_UNKNOWN == dst)
    return &nwkRouteTable[NWK_ROUTE_TABLE_SIZE - 1];

  return NULL;
     dd2:	e1 e6       	ldi	r30, 0x61	; 97
     dd4:	f5 e0       	ldi	r31, 0x05	; 5

/*****************************************************************************
*****************************************************************************/
static NwkRouteTableRecord_t *nwkRouteFindRecord(uint16_t dst)
{
  for (uint8_t i = 0; i < NWK_ROUTE_TABLE_SIZE; i++)
     dd6:	20 e0       	ldi	r18, 0x00	; 0
    if (nwkRouteTable[i].dst == dst)
     dd8:	40 81       	ld	r20, Z
     dda:	51 81       	ldd	r21, Z+1	; 0x01
     ddc:	48 17       	cp	r20, r24
     dde:	59 07       	cpc	r21, r25
     de0:	59 f4       	brne	.+22     	; 0xdf8 <nwkRouteFindRecord+0x26>
      return &nwkRouteTable[i];
     de2:	30 e0       	ldi	r19, 0x00	; 0
     de4:	c9 01       	movw	r24, r18
     de6:	88 0f       	add	r24, r24
     de8:	99 1f       	adc	r25, r25
     dea:	82 0f       	add	r24, r18
     dec:	93 1f       	adc	r25, r19
     dee:	88 0f       	add	r24, r24
     df0:	99 1f       	adc	r25, r25
     df2:	8f 59       	subi	r24, 0x9F	; 159
     df4:	9a 4f       	sbci	r25, 0xFA	; 250
     df6:	08 95       	ret

/*****************************************************************************
*****************************************************************************/
static NwkRouteTableRecord_t *nwkRouteFindRecord(uint16_t dst)
{
  for (uint8_t i = 0; i < NWK_ROUTE_TABLE_SIZE; i++)
     df8:	2f 5f       	subi	r18, 0xFF	; 255
     dfa:	36 96       	adiw	r30, 0x06	; 6
     dfc:	24 36       	cpi	r18, 0x64	; 100
     dfe:	61 f7       	brne	.-40     	; 0xdd8 <nwkRouteFindRecord+0x6>
    if (nwkRouteTable[i].dst == dst)
      return &nwkRouteTable[i];

  if (NWK_ROUTE_UNKNOWN == dst)
     e00:	2f ef       	ldi	r18, 0xFF	; 255
     e02:	8f 3f       	cpi	r24, 0xFF	; 255
     e04:	92 07       	cpc	r25, r18
     e06:	19 f4       	brne	.+6      	; 0xe0e <nwkRouteFindRecord+0x3c>
    return &nwkRouteTable[NWK_ROUTE_TABLE_SIZE - 1];
     e08:	83 eb       	ldi	r24, 0xB3	; 179
     e0a:	97 e0       	ldi	r25, 0x07	; 7
     e0c:	08 95       	ret

  return NULL;
     e0e:	80 e0       	ldi	r24, 0x00	; 0
     e10:	90 e0       	ldi	r25, 0x00	; 0
}
     e12:	08 95       	ret

00000e14 <nwkRouteErrorConf>:

/*****************************************************************************
*****************************************************************************/
static void nwkRouteErrorConf(NwkFrame_t *frame)
{
  nwkFrameFree(frame);
     e14:	0e 94 b3 06 	call	0xd66	; 0xd66 <nwkFrameFree>
}
     e18:	08 95       	ret

00000e1a <nwkRouteTxFrameConf>:

/*****************************************************************************
*****************************************************************************/
static void nwkRouteTxFrameConf(NwkFrame_t *frame)
{
  nwkFrameFree(frame);
     e1a:	0e 94 b3 06 	call	0xd66	; 0xd66 <nwkFrameFree>
}
     e1e:	08 95       	ret

00000e20 <nwkRouteInit>:
static NwkRouteTableRecord_t nwkRouteTable[NWK_ROUTE_TABLE_SIZE];

/*****************************************************************************
*****************************************************************************/
void nwkRouteInit(void)
{
     e20:	e1 e6       	ldi	r30, 0x61	; 97
     e22:	f5 e0       	ldi	r31, 0x05	; 5
     e24:	24 e6       	ldi	r18, 0x64	; 100
  for (uint8_t i = 0; i < NWK_ROUTE_TABLE_SIZE; i++)
    nwkRouteTable[i].dst = NWK_ROUTE_UNKNOWN;
     e26:	8f ef       	ldi	r24, 0xFF	; 255
     e28:	9f ef       	ldi	r25, 0xFF	; 255
     e2a:	91 83       	std	Z+1, r25	; 0x01
     e2c:	80 83       	st	Z, r24
     e2e:	21 50       	subi	r18, 0x01	; 1
     e30:	36 96       	adiw	r30, 0x06	; 6

/*****************************************************************************
*****************************************************************************/
void nwkRouteInit(void)
{
  for (uint8_t i = 0; i < NWK_ROUTE_TABLE_SIZE; i++)
     e32:	22 23       	and	r18, r18
     e34:	d1 f7       	brne	.-12     	; 0xe2a <nwkRouteInit+0xa>
    nwkRouteTable[i].dst = NWK_ROUTE_UNKNOWN;
}
     e36:	08 95       	ret

00000e38 <nwkRouteRemove>:
*****************************************************************************/
void nwkRouteRemove(uint16_t dst)
{
  NwkRouteTableRecord_t *rec;

  rec = nwkRouteFindRecord(dst);
     e38:	0e 94 e9 06 	call	0xdd2	; 0xdd2 <nwkRouteFindRecord>
  if (rec)
     e3c:	00 97       	sbiw	r24, 0x00	; 0
     e3e:	29 f0       	breq	.+10     	; 0xe4a <nwkRouteRemove+0x12>
    rec->dst = NWK_ROUTE_UNKNOWN;
     e40:	2f ef       	ldi	r18, 0xFF	; 255
     e42:	3f ef       	ldi	r19, 0xFF	; 255
     e44:	fc 01       	movw	r30, r24
     e46:	31 83       	std	Z+1, r19	; 0x01
     e48:	20 83       	st	Z, r18
     e4a:	08 95       	ret

00000e4c <nwkRouteFrameReceived>:
}

/*****************************************************************************
*****************************************************************************/
void nwkRouteFrameReceived(NwkFrame_t *frame)
{
     e4c:	ef 92       	push	r14
     e4e:	ff 92       	push	r15
     e50:	0f 93       	push	r16
     e52:	1f 93       	push	r17
     e54:	cf 93       	push	r28
     e56:	df 93       	push	r29
     e58:	ec 01       	movw	r28, r24
  NwkRouteTableRecord_t *rec;
  NwkFrameHeader_t *header = &frame->data.header;

  if ((header->macSrcAddr & NWK_ROUTE_TRANSIT_MASK) &&
     e5a:	09 85       	ldd	r16, Y+9	; 0x09
     e5c:	1a 85       	ldd	r17, Y+10	; 0x0a
     e5e:	17 ff       	sbrs	r17, 7
     e60:	05 c0       	rjmp	.+10     	; 0xe6c <nwkRouteFrameReceived+0x20>
     e62:	8d 85       	ldd	r24, Y+13	; 0x0d
     e64:	9e 85       	ldd	r25, Y+14	; 0x0e
     e66:	08 17       	cp	r16, r24
     e68:	19 07       	cpc	r17, r25
     e6a:	51 f5       	brne	.+84     	; 0xec0 <nwkRouteFrameReceived+0x74>
      (header->macSrcAddr != header->nwkSrcAddr))
    return;

  if (0xffff == header->macDstPanId)
     e6c:	8d 81       	ldd	r24, Y+5	; 0x05
     e6e:	9e 81       	ldd	r25, Y+6	; 0x06
     e70:	2f ef       	ldi	r18, 0xFF	; 255
     e72:	8f 3f       	cpi	r24, 0xFF	; 255
     e74:	92 07       	cpc	r25, r18
     e76:	21 f1       	breq	.+72     	; 0xec0 <nwkRouteFrameReceived+0x74>
    return;

  rec = nwkRouteFindRecord(header->nwkSrcAddr);
     e78:	ed 84       	ldd	r14, Y+13	; 0x0d
     e7a:	fe 84       	ldd	r15, Y+14	; 0x0e
     e7c:	c7 01       	movw	r24, r14
     e7e:	0e 94 e9 06 	call	0xdd2	; 0xdd2 <nwkRouteFindRecord>
     e82:	fc 01       	movw	r30, r24
  if (rec)
     e84:	00 97       	sbiw	r24, 0x00	; 0
     e86:	69 f0       	breq	.+26     	; 0xea2 <nwkRouteFrameReceived+0x56>
  {
    if (rec->nextHop != header->macSrcAddr && frame->rx.lqi > rec->lqi)
     e88:	82 81       	ldd	r24, Z+2	; 0x02
     e8a:	93 81       	ldd	r25, Z+3	; 0x03
     e8c:	80 17       	cp	r24, r16
     e8e:	91 07       	cpc	r25, r17
     e90:	99 f0       	breq	.+38     	; 0xeb8 <nwkRouteFrameReceived+0x6c>
     e92:	de 01       	movw	r26, r28
     e94:	a1 58       	subi	r26, 0x81	; 129
     e96:	bf 4f       	sbci	r27, 0xFF	; 255
     e98:	9c 91       	ld	r25, X
     e9a:	85 81       	ldd	r24, Z+5	; 0x05
     e9c:	89 17       	cp	r24, r25
     e9e:	60 f4       	brcc	.+24     	; 0xeb8 <nwkRouteFrameReceived+0x6c>
     ea0:	07 c0       	rjmp	.+14     	; 0xeb0 <nwkRouteFrameReceived+0x64>
      rec->score = NWK_ROUTE_DEFAULT_SCORE;
    }
  }
  else
  {
    rec = nwkRouteFindRecord(NWK_ROUTE_UNKNOWN);
     ea2:	8f ef       	ldi	r24, 0xFF	; 255
     ea4:	9f ef       	ldi	r25, 0xFF	; 255
     ea6:	0e 94 e9 06 	call	0xdd2	; 0xdd2 <nwkRouteFindRecord>
     eaa:	fc 01       	movw	r30, r24

    rec->dst = header->nwkSrcAddr;
     eac:	f1 82       	std	Z+1, r15	; 0x01
     eae:	e0 82       	st	Z, r14
    rec->nextHop = header->macSrcAddr;
     eb0:	13 83       	std	Z+3, r17	; 0x03
     eb2:	02 83       	std	Z+2, r16	; 0x02
    rec->score = NWK_ROUTE_DEFAULT_SCORE;
     eb4:	83 e0       	ldi	r24, 0x03	; 3
     eb6:	84 83       	std	Z+4, r24	; 0x04
  }

  rec->lqi = frame->rx.lqi;
     eb8:	c1 58       	subi	r28, 0x81	; 129
     eba:	df 4f       	sbci	r29, 0xFF	; 255
     ebc:	88 81       	ld	r24, Y
     ebe:	85 83       	std	Z+5, r24	; 0x05
}
     ec0:	df 91       	pop	r29
     ec2:	cf 91       	pop	r28
     ec4:	1f 91       	pop	r17
     ec6:	0f 91       	pop	r16
     ec8:	ff 90       	pop	r15
     eca:	ef 90       	pop	r14
     ecc:	08 95       	ret

00000ece <nwkRouteFrameSent>:

/*****************************************************************************
*****************************************************************************/
void nwkRouteFrameSent(NwkFrame_t *frame)
{
     ece:	0f 93       	push	r16
     ed0:	1f 93       	push	r17
     ed2:	cf 93       	push	r28
     ed4:	df 93       	push	r29
     ed6:	00 d0       	rcall	.+0      	; 0xed8 <nwkRouteFrameSent+0xa>
     ed8:	00 d0       	rcall	.+0      	; 0xeda <nwkRouteFrameSent+0xc>
     eda:	00 d0       	rcall	.+0      	; 0xedc <nwkRouteFrameSent+0xe>
     edc:	cd b7       	in	r28, 0x3d	; 61
     ede:	de b7       	in	r29, 0x3e	; 62
     ee0:	8c 01       	movw	r16, r24
  NwkRouteTableRecord_t *rec;

  rec = nwkRouteFindRecord(frame->data.header.nwkDstAddr);
     ee2:	dc 01       	movw	r26, r24
     ee4:	1f 96       	adiw	r26, 0x0f	; 15
     ee6:	8d 91       	ld	r24, X+
     ee8:	9c 91       	ld	r25, X
     eea:	50 97       	sbiw	r26, 0x10	; 16
     eec:	0e 94 e9 06 	call	0xdd2	; 0xdd2 <nwkRouteFindRecord>
     ef0:	fc 01       	movw	r30, r24
  if (NULL == rec)
     ef2:	00 97       	sbiw	r24, 0x00	; 0
     ef4:	d1 f1       	breq	.+116    	; 0xf6a <nwkRouteFrameSent+0x9c>
    return;

  if (NWK_SUCCESS_STATUS == frame->tx.status)
     ef6:	d8 01       	movw	r26, r16
     ef8:	a1 58       	subi	r26, 0x81	; 129
     efa:	bf 4f       	sbci	r27, 0xFF	; 255
     efc:	8c 91       	ld	r24, X
     efe:	88 23       	and	r24, r24
     f00:	19 f4       	brne	.+6      	; 0xf08 <nwkRouteFrameSent+0x3a>
  {
    rec->score = NWK_ROUTE_DEFAULT_SCORE;
     f02:	83 e0       	ldi	r24, 0x03	; 3
     f04:	84 83       	std	Z+4, r24	; 0x04
     f06:	0a c0       	rjmp	.+20     	; 0xf1c <nwkRouteFrameSent+0x4e>
  }
  else
  {
    rec->score--;
     f08:	84 81       	ldd	r24, Z+4	; 0x04
     f0a:	81 50       	subi	r24, 0x01	; 1
     f0c:	84 83       	std	Z+4, r24	; 0x04
    if (0 == rec->score)
     f0e:	88 23       	and	r24, r24
     f10:	29 f4       	brne	.+10     	; 0xf1c <nwkRouteFrameSent+0x4e>
    {
      rec->dst = NWK_ROUTE_UNKNOWN;
     f12:	8f ef       	ldi	r24, 0xFF	; 255
     f14:	9f ef       	ldi	r25, 0xFF	; 255
     f16:	91 83       	std	Z+1, r25	; 0x01
     f18:	80 83       	st	Z, r24
      return;
     f1a:	27 c0       	rjmp	.+78     	; 0xf6a <nwkRouteFrameSent+0x9c>
    }
  }

  if ((rec - &nwkRouteTable[0]) > 0)
     f1c:	cf 01       	movw	r24, r30
     f1e:	81 56       	subi	r24, 0x61	; 97
     f20:	95 40       	sbci	r25, 0x05	; 5
     f22:	86 30       	cpi	r24, 0x06	; 6
     f24:	91 05       	cpc	r25, r1
     f26:	0c f1       	brlt	.+66     	; 0xf6a <nwkRouteFrameSent+0x9c>
  {
    NwkRouteTableRecord_t *prev = rec - 1;
    NwkRouteTableRecord_t tmp;

    tmp = *prev;
     f28:	ce 01       	movw	r24, r28
     f2a:	01 96       	adiw	r24, 0x01	; 1
     f2c:	af 01       	movw	r20, r30
     f2e:	46 50       	subi	r20, 0x06	; 6
     f30:	50 40       	sbci	r21, 0x00	; 0
     f32:	26 e0       	ldi	r18, 0x06	; 6
     f34:	da 01       	movw	r26, r20
     f36:	0d 90       	ld	r0, X+
     f38:	ad 01       	movw	r20, r26
     f3a:	dc 01       	movw	r26, r24
     f3c:	0d 92       	st	X+, r0
     f3e:	cd 01       	movw	r24, r26
     f40:	21 50       	subi	r18, 0x01	; 1
     f42:	c1 f7       	brne	.-16     	; 0xf34 <nwkRouteFrameSent+0x66>
    *prev = *rec;
     f44:	cf 01       	movw	r24, r30
     f46:	06 97       	sbiw	r24, 0x06	; 6
     f48:	af 01       	movw	r20, r30
     f4a:	26 e0       	ldi	r18, 0x06	; 6
     f4c:	da 01       	movw	r26, r20
     f4e:	0d 90       	ld	r0, X+
     f50:	ad 01       	movw	r20, r26
     f52:	dc 01       	movw	r26, r24
     f54:	0d 92       	st	X+, r0
     f56:	cd 01       	movw	r24, r26
     f58:	21 50       	subi	r18, 0x01	; 1
     f5a:	c1 f7       	brne	.-16     	; 0xf4c <nwkRouteFrameSent+0x7e>
    *rec = tmp;
     f5c:	de 01       	movw	r26, r28
     f5e:	11 96       	adiw	r26, 0x01	; 1
     f60:	86 e0       	ldi	r24, 0x06	; 6
     f62:	0d 90       	ld	r0, X+
     f64:	01 92       	st	Z+, r0
     f66:	81 50       	subi	r24, 0x01	; 1
     f68:	e1 f7       	brne	.-8      	; 0xf62 <nwkRouteFrameSent+0x94>
  }
}
     f6a:	26 96       	adiw	r28, 0x06	; 6
     f6c:	0f b6       	in	r0, 0x3f	; 63
     f6e:	f8 94       	cli
     f70:	de bf       	out	0x3e, r29	; 62
     f72:	0f be       	out	0x3f, r0	; 63
     f74:	cd bf       	out	0x3d, r28	; 61
     f76:	df 91       	pop	r29
     f78:	cf 91       	pop	r28
     f7a:	1f 91       	pop	r17
     f7c:	0f 91       	pop	r16
     f7e:	08 95       	ret

00000f80 <nwkRouteNextHop>:

/*****************************************************************************
*****************************************************************************/
uint16_t nwkRouteNextHop(uint16_t dst)
{
  if (0xffff == dst)
     f80:	2f ef       	ldi	r18, 0xFF	; 255
     f82:	8f 3f       	cpi	r24, 0xFF	; 255
     f84:	92 07       	cpc	r25, r18
     f86:	f1 f0       	breq	.+60     	; 0xfc4 <nwkRouteNextHop+0x44>
     f88:	e1 e6       	ldi	r30, 0x61	; 97
     f8a:	f5 e0       	ldi	r31, 0x05	; 5
     f8c:	40 e0       	ldi	r20, 0x00	; 0
     f8e:	50 e0       	ldi	r21, 0x00	; 0
    return NWK_ROUTE_UNKNOWN;

  for (uint8_t i = 0; i < NWK_ROUTE_TABLE_SIZE; i++)
    if (nwkRouteTable[i].dst == dst)
     f90:	20 81       	ld	r18, Z
     f92:	31 81       	ldd	r19, Z+1	; 0x01
     f94:	28 17       	cp	r18, r24
     f96:	39 07       	cpc	r19, r25
     f98:	61 f4       	brne	.+24     	; 0xfb2 <nwkRouteNextHop+0x32>
      return nwkRouteTable[i].nextHop;
     f9a:	fa 01       	movw	r30, r20
     f9c:	ee 0f       	add	r30, r30
     f9e:	ff 1f       	adc	r31, r31
     fa0:	e4 0f       	add	r30, r20
     fa2:	f5 1f       	adc	r31, r21
     fa4:	ee 0f       	add	r30, r30
     fa6:	ff 1f       	adc	r31, r31
     fa8:	ef 59       	subi	r30, 0x9F	; 159
     faa:	fa 4f       	sbci	r31, 0xFA	; 250
     fac:	82 81       	ldd	r24, Z+2	; 0x02
     fae:	93 81       	ldd	r25, Z+3	; 0x03
     fb0:	08 95       	ret
     fb2:	4f 5f       	subi	r20, 0xFF	; 255
     fb4:	5f 4f       	sbci	r21, 0xFF	; 255
     fb6:	36 96       	adiw	r30, 0x06	; 6
uint16_t nwkRouteNextHop(uint16_t dst)
{
  if (0xffff == dst)
    return NWK_ROUTE_UNKNOWN;

  for (uint8_t i = 0; i < NWK_ROUTE_TABLE_SIZE; i++)
     fb8:	44 36       	cpi	r20, 0x64	; 100
     fba:	51 05       	cpc	r21, r1
     fbc:	49 f7       	brne	.-46     	; 0xf90 <nwkRouteNextHop+0x10>
    if (nwkRouteTable[i].dst == dst)
      return nwkRouteTable[i].nextHop;

  return NWK_ROUTE_UNKNOWN;
     fbe:	8f ef       	ldi	r24, 0xFF	; 255
     fc0:	9f ef       	ldi	r25, 0xFF	; 255
     fc2:	08 95       	ret
/*****************************************************************************
*****************************************************************************/
uint16_t nwkRouteNextHop(uint16_t dst)
{
  if (0xffff == dst)
    return NWK_ROUTE_UNKNOWN;
     fc4:	8f ef       	ldi	r24, 0xFF	; 255
     fc6:	9f ef       	ldi	r25, 0xFF	; 255
  for (uint8_t i = 0; i < NWK_ROUTE_TABLE_SIZE; i++)
    if (nwkRouteTable[i].dst == dst)
      return nwkRouteTable[i].nextHop;

  return NWK_ROUTE_UNKNOWN;
}
     fc8:	08 95       	ret

00000fca <nwkRouteFrame>:

/*****************************************************************************
*****************************************************************************/
void nwkRouteFrame(NwkFrame_t *frame)
{
     fca:	cf 92       	push	r12
     fcc:	df 92       	push	r13
     fce:	ef 92       	push	r14
     fd0:	ff 92       	push	r15
     fd2:	0f 93       	push	r16
     fd4:	1f 93       	push	r17
     fd6:	cf 93       	push	r28
     fd8:	df 93       	push	r29
     fda:	8c 01       	movw	r16, r24
  if (NWK_ROUTE_UNKNOWN != nwkRouteNextHop(frame->data.header.nwkDstAddr))
     fdc:	fc 01       	movw	r30, r24
     fde:	c7 84       	ldd	r12, Z+15	; 0x0f
     fe0:	d0 88       	ldd	r13, Z+16	; 0x10
     fe2:	c6 01       	movw	r24, r12
     fe4:	0e 94 c0 07 	call	0xf80	; 0xf80 <nwkRouteNextHop>
     fe8:	ff ef       	ldi	r31, 0xFF	; 255
     fea:	8f 3f       	cpi	r24, 0xFF	; 255
     fec:	9f 07       	cpc	r25, r31
     fee:	81 f0       	breq	.+32     	; 0x1010 <nwkRouteFrame+0x46>
  {
    frame->tx.confirm = nwkRouteTxFrameConf;
     ff0:	f8 01       	movw	r30, r16
     ff2:	ed 57       	subi	r30, 0x7D	; 125
     ff4:	ff 4f       	sbci	r31, 0xFF	; 255
     ff6:	8d e0       	ldi	r24, 0x0D	; 13
     ff8:	97 e0       	ldi	r25, 0x07	; 7
     ffa:	91 83       	std	Z+1, r25	; 0x01
     ffc:	80 83       	st	Z, r24
    frame->tx.control = NWK_TX_CONTROL_ROUTING;
     ffe:	f8 01       	movw	r30, r16
    1000:	ee 57       	subi	r30, 0x7E	; 126
    1002:	ff 4f       	sbci	r31, 0xFF	; 255
    1004:	82 e0       	ldi	r24, 0x02	; 2
    1006:	80 83       	st	Z, r24
    nwkTxFrame(frame);
    1008:	c8 01       	movw	r24, r16
    100a:	0e 94 ee 0a 	call	0x15dc	; 0x15dc <nwkTxFrame>
    100e:	20 c0       	rjmp	.+64     	; 0x1050 <nwkRouteFrame+0x86>
  }
  else
  {
    nwkRouteSendRouteError(frame->data.header.nwkSrcAddr, frame->data.header.nwkDstAddr);
    1010:	f8 01       	movw	r30, r16
    1012:	e5 84       	ldd	r14, Z+13	; 0x0d
    1014:	f6 84       	ldd	r15, Z+14	; 0x0e
static void nwkRouteSendRouteError(uint16_t src, uint16_t dst)
{
  NwkFrame_t *frame;
  NwkRouteErrorCommand_t *command;

  if (NULL == (frame = nwkFrameAlloc(sizeof(NwkRouteErrorCommand_t))))
    1016:	85 e0       	ldi	r24, 0x05	; 5
    1018:	0e 94 8d 06 	call	0xd1a	; 0xd1a <nwkFrameAlloc>
    101c:	ec 01       	movw	r28, r24
    101e:	00 97       	sbiw	r24, 0x00	; 0
    1020:	a1 f0       	breq	.+40     	; 0x104a <nwkRouteFrame+0x80>
    return;

  nwkFrameCommandInit(frame);
    1022:	0e 94 c4 06 	call	0xd88	; 0xd88 <nwkFrameCommandInit>

  frame->tx.confirm = nwkRouteErrorConf;
    1026:	fe 01       	movw	r30, r28
    1028:	ed 57       	subi	r30, 0x7D	; 125
    102a:	ff 4f       	sbci	r31, 0xFF	; 255
    102c:	8a e0       	ldi	r24, 0x0A	; 10
    102e:	97 e0       	ldi	r25, 0x07	; 7
    1030:	91 83       	std	Z+1, r25	; 0x01
    1032:	80 83       	st	Z, r24

  frame->data.header.nwkDstAddr = src;
    1034:	f8 8a       	std	Y+16, r15	; 0x10
    1036:	ef 86       	std	Y+15, r14	; 0x0f

  command = (NwkRouteErrorCommand_t *)frame->data.payload;

  command->id = NWK_COMMAND_ROUTE_ERROR;
    1038:	81 e0       	ldi	r24, 0x01	; 1
    103a:	8a 8b       	std	Y+18, r24	; 0x12
  command->srcAddr = src;
    103c:	fc 8a       	std	Y+20, r15	; 0x14
    103e:	eb 8a       	std	Y+19, r14	; 0x13
  command->dstAddr = dst;
    1040:	de 8a       	std	Y+22, r13	; 0x16
    1042:	cd 8a       	std	Y+21, r12	; 0x15

  nwkTxFrame(frame);
    1044:	ce 01       	movw	r24, r28
    1046:	0e 94 ee 0a 	call	0x15dc	; 0x15dc <nwkTxFrame>
    nwkTxFrame(frame);
  }
  else
  {
    nwkRouteSendRouteError(frame->data.header.nwkSrcAddr, frame->data.header.nwkDstAddr);
    nwkFrameFree(frame);
    104a:	c8 01       	movw	r24, r16
    104c:	0e 94 b3 06 	call	0xd66	; 0xd66 <nwkFrameFree>
  }
}
    1050:	df 91       	pop	r29
    1052:	cf 91       	pop	r28
    1054:	1f 91       	pop	r17
    1056:	0f 91       	pop	r16
    1058:	ff 90       	pop	r15
    105a:	ef 90       	pop	r14
    105c:	df 90       	pop	r13
    105e:	cf 90       	pop	r12
    1060:	08 95       	ret

00001062 <nwkRouteErrorReceived>:
*****************************************************************************/
void nwkRouteErrorReceived(NWK_DataInd_t *ind)
{
  NwkRouteErrorCommand_t *command = (NwkRouteErrorCommand_t *)ind->data;

  nwkRouteRemove(command->dstAddr);
    1062:	dc 01       	movw	r26, r24
    1064:	15 96       	adiw	r26, 0x05	; 5
    1066:	ed 91       	ld	r30, X+
    1068:	fc 91       	ld	r31, X
    106a:	16 97       	sbiw	r26, 0x06	; 6
    106c:	83 81       	ldd	r24, Z+3	; 0x03
    106e:	94 81       	ldd	r25, Z+4	; 0x04
    1070:	0e 94 1c 07 	call	0xe38	; 0xe38 <nwkRouteRemove>
}
    1074:	08 95       	ret

00001076 <NWK_RouteNextHop>:

/*****************************************************************************
*****************************************************************************/
uint16_t NWK_RouteNextHop(uint16_t dst)
{
  return nwkRouteNextHop(dst);
    1076:	0e 94 c0 07 	call	0xf80	; 0xf80 <nwkRouteNextHop>
}
    107a:	08 95       	ret

0000107c <nwkRxSendAckConf>:

/*****************************************************************************
*****************************************************************************/
static void nwkRxSendAckConf(NwkFrame_t *frame)
{
  nwkFrameFree(frame);
    107c:	0e 94 b3 06 	call	0xd66	; 0xd66 <nwkFrameFree>
}
    1080:	08 95       	ret

00001082 <nwkRxDuplicateRejectionTimerHandler>:
  for (uint8_t i = 0; i < NWK_DUPLICATE_REJECTION_TABLE_SIZE; i++)
  {
    if (nwkRxDuplicateRejectionTable[i].ttl)
    {
      nwkRxDuplicateRejectionTable[i].ttl--;
      restart = true;
    1082:	ed eb       	ldi	r30, 0xBD	; 189
    1084:	f7 e0       	ldi	r31, 0x07	; 7
#endif

/*****************************************************************************
*****************************************************************************/
static void nwkRxDuplicateRejectionTimerHandler(SYS_Timer_t *timer)
{
    1086:	4a e0       	ldi	r20, 0x0A	; 10
  bool restart = false;
    1088:	50 e0       	ldi	r21, 0x00	; 0

  for (uint8_t i = 0; i < NWK_DUPLICATE_REJECTION_TABLE_SIZE; i++)
  {
    if (nwkRxDuplicateRejectionTable[i].ttl)
    108a:	20 81       	ld	r18, Z
    108c:	31 81       	ldd	r19, Z+1	; 0x01
    108e:	21 15       	cp	r18, r1
    1090:	31 05       	cpc	r19, r1
    1092:	29 f0       	breq	.+10     	; 0x109e <nwkRxDuplicateRejectionTimerHandler+0x1c>
    {
      nwkRxDuplicateRejectionTable[i].ttl--;
    1094:	21 50       	subi	r18, 0x01	; 1
    1096:	30 40       	sbci	r19, 0x00	; 0
    1098:	31 83       	std	Z+1, r19	; 0x01
    109a:	20 83       	st	Z, r18
      restart = true;
    109c:	51 e0       	ldi	r21, 0x01	; 1

  for (uint8_t i = 0; i < NWK_DUPLICATE_REJECTION_TABLE_SIZE; i++)
  {
    if (nwkRxDuplicateRejectionTable[i].ttl)
    {
      nwkRxDuplicateRejectionTable[i].ttl--;
    109e:	41 50       	subi	r20, 0x01	; 1
    10a0:	35 96       	adiw	r30, 0x05	; 5
*****************************************************************************/
static void nwkRxDuplicateRejectionTimerHandler(SYS_Timer_t *timer)
{
  bool restart = false;

  for (uint8_t i = 0; i < NWK_DUPLICATE_REJECTION_TABLE_SIZE; i++)
    10a2:	44 23       	and	r20, r20
    10a4:	91 f7       	brne	.-28     	; 0x108a <nwkRxDuplicateRejectionTimerHandler+0x8>
      nwkRxDuplicateRejectionTable[i].ttl--;
      restart = true;
    }
  }

  if (restart)
    10a6:	55 23       	and	r21, r21
    10a8:	11 f0       	breq	.+4      	; 0x10ae <nwkRxDuplicateRejectionTimerHandler+0x2c>
    SYS_TimerStart(timer);
    10aa:	0e 94 b1 0e 	call	0x1d62	; 0x1d62 <SYS_TimerStart>
    10ae:	08 95       	ret

000010b0 <nwkRxSeriveDataInd>:

/*****************************************************************************
*****************************************************************************/
static bool nwkRxSeriveDataInd(NWK_DataInd_t *ind)
{
  uint8_t cmd = ind->data[0];
    10b0:	dc 01       	movw	r26, r24
    10b2:	15 96       	adiw	r26, 0x05	; 5
    10b4:	ed 91       	ld	r30, X+
    10b6:	fc 91       	ld	r31, X
    10b8:	16 97       	sbiw	r26, 0x06	; 6
    10ba:	20 81       	ld	r18, Z

  if (NWK_COMMAND_ACK == cmd)
    10bc:	22 23       	and	r18, r18
    10be:	19 f4       	brne	.+6      	; 0x10c6 <nwkRxSeriveDataInd+0x16>
    nwkTxAckReceived(ind);
    10c0:	0e 94 73 0b 	call	0x16e6	; 0x16e6 <nwkTxAckReceived>
    10c4:	04 c0       	rjmp	.+8      	; 0x10ce <nwkRxSeriveDataInd+0x1e>
#ifdef NWK_ENABLE_ROUTING
  else if (NWK_COMMAND_ROUTE_ERROR == cmd)
    10c6:	21 30       	cpi	r18, 0x01	; 1
    10c8:	21 f4       	brne	.+8      	; 0x10d2 <nwkRxSeriveDataInd+0x22>
    nwkRouteErrorReceived(ind);
    10ca:	0e 94 31 08 	call	0x1062	; 0x1062 <nwkRouteErrorReceived>
#endif
  else
    return false;

  return true;
    10ce:	81 e0       	ldi	r24, 0x01	; 1
    10d0:	08 95       	ret
#ifdef NWK_ENABLE_ROUTING
  else if (NWK_COMMAND_ROUTE_ERROR == cmd)
    nwkRouteErrorReceived(ind);
#endif
  else
    return false;
    10d2:	80 e0       	ldi	r24, 0x00	; 0

  return true;
}
    10d4:	08 95       	ret

000010d6 <nwkRxInit>:
}

/*****************************************************************************
*****************************************************************************/
void nwkRxInit(void)
{
    10d6:	ed eb       	ldi	r30, 0xBD	; 189
    10d8:	f7 e0       	ldi	r31, 0x07	; 7
    10da:	8a e0       	ldi	r24, 0x0A	; 10
  for (uint8_t i = 0; i < NWK_DUPLICATE_REJECTION_TABLE_SIZE; i++)
    nwkRxDuplicateRejectionTable[i].ttl = 0;
    10dc:	11 82       	std	Z+1, r1	; 0x01
    10de:	10 82       	st	Z, r1
    10e0:	81 50       	subi	r24, 0x01	; 1
    10e2:	35 96       	adiw	r30, 0x05	; 5

/*****************************************************************************
*****************************************************************************/
void nwkRxInit(void)
{
  for (uint8_t i = 0; i < NWK_DUPLICATE_REJECTION_TABLE_SIZE; i++)
    10e4:	88 23       	and	r24, r24
    10e6:	d1 f7       	brne	.-12     	; 0x10dc <nwkRxInit+0x6>
    nwkRxDuplicateRejectionTable[i].ttl = 0;

  nwkRxActiveFrames = 0;
    10e8:	10 92 ec 07 	sts	0x07EC, r1

  nwkRxDuplicateRejectionTimer.interval = NWK_RX_DUPLICATE_REJECTION_TIMER_INTERVAL;
    10ec:	84 e1       	ldi	r24, 0x14	; 20
    10ee:	90 e0       	ldi	r25, 0x00	; 0
    10f0:	a0 e0       	ldi	r26, 0x00	; 0
    10f2:	b0 e0       	ldi	r27, 0x00	; 0
    10f4:	80 93 f3 07 	sts	0x07F3, r24
    10f8:	90 93 f4 07 	sts	0x07F4, r25
    10fc:	a0 93 f5 07 	sts	0x07F5, r26
    1100:	b0 93 f6 07 	sts	0x07F6, r27
  nwkRxDuplicateRejectionTimer.mode = SYS_TIMER_INTERVAL_MODE;
    1104:	10 92 f7 07 	sts	0x07F7, r1
  nwkRxDuplicateRejectionTimer.handler = nwkRxDuplicateRejectionTimerHandler;
    1108:	81 e4       	ldi	r24, 0x41	; 65
    110a:	98 e0       	ldi	r25, 0x08	; 8
    110c:	90 93 f9 07 	sts	0x07F9, r25
    1110:	80 93 f8 07 	sts	0x07F8, r24

  NWK_OpenEndpoint(NWK_SERVICE_ENDPOINT_ID, nwkRxSeriveDataInd);
    1114:	80 e0       	ldi	r24, 0x00	; 0
    1116:	68 e5       	ldi	r22, 0x58	; 88
    1118:	78 e0       	ldi	r23, 0x08	; 8
    111a:	0e 94 8b 05 	call	0xb16	; 0xb16 <NWK_OpenEndpoint>
}
    111e:	08 95       	ret

00001120 <PHY_DataInd>:

/*****************************************************************************
*****************************************************************************/
void PHY_DataInd(PHY_DataInd_t *ind)
{
    1120:	cf 93       	push	r28
    1122:	df 93       	push	r29
    1124:	ec 01       	movw	r28, r24
  NwkFrame_t *frame;

  if (0x88 != ind->data[1] || (0x61 != ind->data[0] && 0x41 != ind->data[0]) ||
    1126:	e8 81       	ld	r30, Y
    1128:	f9 81       	ldd	r31, Y+1	; 0x01
    112a:	81 81       	ldd	r24, Z+1	; 0x01
    112c:	88 38       	cpi	r24, 0x88	; 136
    112e:	29 f5       	brne	.+74     	; 0x117a <PHY_DataInd+0x5a>
    1130:	80 81       	ld	r24, Z
    1132:	81 36       	cpi	r24, 0x61	; 97
    1134:	11 f0       	breq	.+4      	; 0x113a <PHY_DataInd+0x1a>
    1136:	81 34       	cpi	r24, 0x41	; 65
    1138:	01 f5       	brne	.+64     	; 0x117a <PHY_DataInd+0x5a>
      ind->size < sizeof(NwkFrameHeader_t))
    113a:	8a 81       	ldd	r24, Y+2	; 0x02
*****************************************************************************/
void PHY_DataInd(PHY_DataInd_t *ind)
{
  NwkFrame_t *frame;

  if (0x88 != ind->data[1] || (0x61 != ind->data[0] && 0x41 != ind->data[0]) ||
    113c:	80 31       	cpi	r24, 0x10	; 16
    113e:	e8 f0       	brcs	.+58     	; 0x117a <PHY_DataInd+0x5a>
      ind->size < sizeof(NwkFrameHeader_t))
    return;

  if (NULL == (frame = nwkFrameAlloc(ind->size - sizeof(NwkFrameHeader_t))))
    1140:	80 51       	subi	r24, 0x10	; 16
    1142:	0e 94 8d 06 	call	0xd1a	; 0xd1a <nwkFrameAlloc>
    1146:	00 97       	sbiw	r24, 0x00	; 0
    1148:	c1 f0       	breq	.+48     	; 0x117a <PHY_DataInd+0x5a>
    return;

  frame->state = NWK_RX_STATE_RECEIVED;
    114a:	20 e2       	ldi	r18, 0x20	; 32
    114c:	fc 01       	movw	r30, r24
    114e:	20 83       	st	Z, r18
  frame->rx.lqi = ind->lqi;
    1150:	2b 81       	ldd	r18, Y+3	; 0x03
    1152:	e1 58       	subi	r30, 0x81	; 129
    1154:	ff 4f       	sbci	r31, 0xFF	; 255
    1156:	20 83       	st	Z, r18
  frame->rx.rssi = ind->rssi;
    1158:	2c 81       	ldd	r18, Y+4	; 0x04
    115a:	fc 01       	movw	r30, r24
    115c:	e0 58       	subi	r30, 0x80	; 128
    115e:	ff 4f       	sbci	r31, 0xFF	; 255
    1160:	20 83       	st	Z, r18

  memcpy((uint8_t *)&frame->data, ind->data, ind->size);
    1162:	02 96       	adiw	r24, 0x02	; 2
    1164:	4a 81       	ldd	r20, Y+2	; 0x02
    1166:	68 81       	ld	r22, Y
    1168:	79 81       	ldd	r23, Y+1	; 0x01
    116a:	50 e0       	ldi	r21, 0x00	; 0
    116c:	0e 94 3d 12 	call	0x247a	; 0x247a <memcpy>

  ++nwkRxActiveFrames;
    1170:	80 91 ec 07 	lds	r24, 0x07EC
    1174:	8f 5f       	subi	r24, 0xFF	; 255
    1176:	80 93 ec 07 	sts	0x07EC, r24
}
    117a:	df 91       	pop	r29
    117c:	cf 91       	pop	r28
    117e:	08 95       	ret

00001180 <nwkRxBusy>:

/*****************************************************************************
*****************************************************************************/
bool nwkRxBusy(void)
{
  return nwkRxActiveFrames > 0;
    1180:	81 e0       	ldi	r24, 0x01	; 1
    1182:	90 91 ec 07 	lds	r25, 0x07EC
    1186:	99 23       	and	r25, r25
    1188:	09 f4       	brne	.+2      	; 0x118c <nwkRxBusy+0xc>
    118a:	80 e0       	ldi	r24, 0x00	; 0
}
    118c:	08 95       	ret

0000118e <nwkRxTaskHandler>:
}

/*****************************************************************************
*****************************************************************************/
void nwkRxTaskHandler(void)
{
    118e:	8f 92       	push	r8
    1190:	9f 92       	push	r9
    1192:	af 92       	push	r10
    1194:	bf 92       	push	r11
    1196:	cf 92       	push	r12
    1198:	df 92       	push	r13
    119a:	ef 92       	push	r14
    119c:	ff 92       	push	r15
    119e:	0f 93       	push	r16
    11a0:	1f 93       	push	r17
    11a2:	cf 93       	push	r28
    11a4:	df 93       	push	r29
    11a6:	cd b7       	in	r28, 0x3d	; 61
    11a8:	de b7       	in	r29, 0x3e	; 62
    11aa:	2a 97       	sbiw	r28, 0x0a	; 10
    11ac:	0f b6       	in	r0, 0x3f	; 63
    11ae:	f8 94       	cli
    11b0:	de bf       	out	0x3e, r29	; 62
    11b2:	0f be       	out	0x3f, r0	; 63
    11b4:	cd bf       	out	0x3d, r28	; 61
  if (0 == nwkRxActiveFrames)
    11b6:	80 91 ec 07 	lds	r24, 0x07EC
    11ba:	88 23       	and	r24, r24
    11bc:	09 f4       	brne	.+2      	; 0x11c0 <nwkRxTaskHandler+0x32>
    11be:	ad c1       	rjmp	.+858    	; 0x151a <nwkRxTaskHandler+0x38c>
    11c0:	dd 24       	eor	r13, r13
        forceAck = (0xffff == header->macDstAddr && nwkIb.addr == header->nwkDstAddr);

        if ((header->nwkFcf.ackRequest && ack) || forceAck)
          nwkRxSendAck(frame);

        frame->state = NWK_RX_STATE_FINISH;
    11c2:	44 e2       	ldi	r20, 0x24	; 36
    11c4:	c4 2e       	mov	r12, r20
  if (NULL == (ack = nwkFrameAlloc(sizeof(NwkAckCommand_t))))
    return;

  nwkFrameCommandInit(ack);

  ack->tx.confirm = nwkRxSendAckConf;
    11c6:	5e e3       	ldi	r21, 0x3E	; 62
    11c8:	85 2e       	mov	r8, r21
    11ca:	58 e0       	ldi	r21, 0x08	; 8
    11cc:	95 2e       	mov	r9, r21
#ifdef NWK_ENABLE_SECURITY
    if (header->nwkFcf.securityEnabled)
      frame->state = NWK_RX_STATE_DECRYPT;
    else
#endif
      frame->state = NWK_RX_STATE_INDICATE;
    11ce:	62 e2       	ldi	r22, 0x22	; 34
    11d0:	b6 2e       	mov	r11, r22
  }
#ifdef NWK_ENABLE_ROUTING
  else if (nwkIb.addr == header->macDstAddr && 0xffff != header->macDstPanId)
  {
    frame->state = NWK_RX_STATE_ROUTE;
    11d2:	73 e2       	ldi	r23, 0x23	; 35
    11d4:	a7 2e       	mov	r10, r23
  if (0 == nwkRxActiveFrames)
    return;

  for (int i = 0; i < NWK_BUFFERS_AMOUNT; i++)
  {
    NwkFrame_t *frame = nwkFrameByIndex(i);
    11d6:	8d 2d       	mov	r24, r13
    11d8:	0e 94 b6 06 	call	0xd6c	; 0xd6c <nwkFrameByIndex>
    11dc:	7c 01       	movw	r14, r24

    switch (frame->state)
    11de:	dc 01       	movw	r26, r24
    11e0:	8c 91       	ld	r24, X
    11e2:	82 32       	cpi	r24, 0x22	; 34
    11e4:	09 f4       	brne	.+2      	; 0x11e8 <nwkRxTaskHandler+0x5a>
    11e6:	d9 c0       	rjmp	.+434    	; 0x139a <nwkRxTaskHandler+0x20c>
    11e8:	83 32       	cpi	r24, 0x23	; 35
    11ea:	20 f4       	brcc	.+8      	; 0x11f4 <nwkRxTaskHandler+0x66>
    11ec:	80 32       	cpi	r24, 0x20	; 32
    11ee:	09 f0       	breq	.+2      	; 0x11f2 <nwkRxTaskHandler+0x64>
    11f0:	8f c1       	rjmp	.+798    	; 0x1510 <nwkRxTaskHandler+0x382>
    11f2:	07 c0       	rjmp	.+14     	; 0x1202 <nwkRxTaskHandler+0x74>
    11f4:	83 32       	cpi	r24, 0x23	; 35
    11f6:	09 f4       	brne	.+2      	; 0x11fa <nwkRxTaskHandler+0x6c>
    11f8:	7f c1       	rjmp	.+766    	; 0x14f8 <nwkRxTaskHandler+0x36a>
    11fa:	84 32       	cpi	r24, 0x24	; 36
    11fc:	09 f0       	breq	.+2      	; 0x1200 <nwkRxTaskHandler+0x72>
    11fe:	88 c1       	rjmp	.+784    	; 0x1510 <nwkRxTaskHandler+0x382>
    1200:	7f c1       	rjmp	.+766    	; 0x1500 <nwkRxTaskHandler+0x372>
*****************************************************************************/
static void nwkRxHandleReceivedFrame(NwkFrame_t *frame)
{
  NwkFrameHeader_t *header = &frame->data.header;

  frame->state = NWK_RX_STATE_FINISH;
    1202:	f7 01       	movw	r30, r14
    1204:	c0 82       	st	Z, r12

  if ((0xffff == header->nwkDstAddr && header->nwkFcf.ackRequest) ||
    1206:	87 85       	ldd	r24, Z+15	; 0x0f
    1208:	90 89       	ldd	r25, Z+16	; 0x10
    120a:	ff ef       	ldi	r31, 0xFF	; 255
    120c:	8f 3f       	cpi	r24, 0xFF	; 255
    120e:	9f 07       	cpc	r25, r31
    1210:	31 f4       	brne	.+12     	; 0x121e <nwkRxTaskHandler+0x90>
    1212:	d7 01       	movw	r26, r14
    1214:	1b 96       	adiw	r26, 0x0b	; 11
    1216:	8c 91       	ld	r24, X
    1218:	1b 97       	sbiw	r26, 0x0b	; 11
    121a:	80 fd       	sbrc	r24, 0
    121c:	79 c1       	rjmp	.+754    	; 0x1510 <nwkRxTaskHandler+0x382>
    121e:	20 91 fa 08 	lds	r18, 0x08FA
    1222:	30 91 fb 08 	lds	r19, 0x08FB
    1226:	f7 01       	movw	r30, r14
    1228:	85 85       	ldd	r24, Z+13	; 0x0d
    122a:	96 85       	ldd	r25, Z+14	; 0x0e
    122c:	28 17       	cp	r18, r24
    122e:	39 07       	cpc	r19, r25
    1230:	09 f4       	brne	.+2      	; 0x1234 <nwkRxTaskHandler+0xa6>
    1232:	6e c1       	rjmp	.+732    	; 0x1510 <nwkRxTaskHandler+0x382>
      (nwkIb.addr == header->nwkSrcAddr))
    return;

#ifndef NWK_ENABLE_SECURITY
  if (header->nwkFcf.securityEnabled)
    1234:	83 85       	ldd	r24, Z+11	; 0x0b
    1236:	81 fd       	sbrc	r24, 1
    1238:	6b c1       	rjmp	.+726    	; 0x1510 <nwkRxTaskHandler+0x382>
    return;
#endif

#ifdef NWK_ENABLE_ROUTING
  nwkRouteFrameReceived(frame);
    123a:	c7 01       	movw	r24, r14
    123c:	0e 94 26 07 	call	0xe4c	; 0xe4c <nwkRouteFrameReceived>
    1240:	ea eb       	ldi	r30, 0xBA	; 186
    1242:	f7 e0       	ldi	r31, 0x07	; 7
    1244:	40 e0       	ldi	r20, 0x00	; 0
    1246:	50 e0       	ldi	r21, 0x00	; 0

/*****************************************************************************
*****************************************************************************/
static bool nwkRxRejectDuplicate(NwkFrameHeader_t *header)
{
  int8_t free = -1;
    1248:	6f ef       	ldi	r22, 0xFF	; 255

  for (uint8_t i = 0; i < NWK_DUPLICATE_REJECTION_TABLE_SIZE; i++)
  {
    if (nwkRxDuplicateRejectionTable[i].ttl)
    124a:	23 81       	ldd	r18, Z+3	; 0x03
    124c:	34 81       	ldd	r19, Z+4	; 0x04
    124e:	21 15       	cp	r18, r1
    1250:	31 05       	cpc	r19, r1
    1252:	81 f1       	breq	.+96     	; 0x12b4 <nwkRxTaskHandler+0x126>
    {
      if (header->nwkSrcAddr == nwkRxDuplicateRejectionTable[i].src)
    1254:	d7 01       	movw	r26, r14
    1256:	1d 96       	adiw	r26, 0x0d	; 13
    1258:	8d 91       	ld	r24, X+
    125a:	9c 91       	ld	r25, X
    125c:	1e 97       	sbiw	r26, 0x0e	; 14
    125e:	20 81       	ld	r18, Z
    1260:	31 81       	ldd	r19, Z+1	; 0x01
    1262:	82 17       	cp	r24, r18
    1264:	93 07       	cpc	r25, r19
    1266:	39 f5       	brne	.+78     	; 0x12b6 <nwkRxTaskHandler+0x128>
      {
        int8_t diff = (int8_t)header->nwkSeq - nwkRxDuplicateRejectionTable[i].seq;
    1268:	1c 96       	adiw	r26, 0x0c	; 12
    126a:	8c 91       	ld	r24, X
    126c:	fa 01       	movw	r30, r20
    126e:	ee 0f       	add	r30, r30
    1270:	ff 1f       	adc	r31, r31
    1272:	ee 0f       	add	r30, r30
    1274:	ff 1f       	adc	r31, r31
    1276:	e4 0f       	add	r30, r20
    1278:	f5 1f       	adc	r31, r21
    127a:	e6 54       	subi	r30, 0x46	; 70
    127c:	f8 4f       	sbci	r31, 0xF8	; 248
    127e:	92 81       	ldd	r25, Z+2	; 0x02
    1280:	b8 2f       	mov	r27, r24
    1282:	b9 1b       	sub	r27, r25

        if (diff > 0)
    1284:	1b 16       	cp	r1, r27
    1286:	34 f4       	brge	.+12     	; 0x1294 <nwkRxTaskHandler+0x106>
        {
          nwkRxDuplicateRejectionTable[i].seq = header->nwkSeq;
    1288:	82 83       	std	Z+2, r24	; 0x02
          nwkRxDuplicateRejectionTable[i].ttl = DUPLICATE_REJECTION_TTL;
    128a:	87 e9       	ldi	r24, 0x97	; 151
    128c:	90 e0       	ldi	r25, 0x00	; 0
    128e:	94 83       	std	Z+4, r25	; 0x04
    1290:	83 83       	std	Z+3, r24	; 0x03
    1292:	39 c0       	rjmp	.+114    	; 0x1306 <nwkRxTaskHandler+0x178>
          return false;
        }
        else
        {
#ifdef NWK_ENABLE_ROUTING
          if (nwkIb.addr == header->macDstAddr)
    1294:	20 91 fa 08 	lds	r18, 0x08FA
    1298:	30 91 fb 08 	lds	r19, 0x08FB
    129c:	f7 01       	movw	r30, r14
    129e:	87 81       	ldd	r24, Z+7	; 0x07
    12a0:	90 85       	ldd	r25, Z+8	; 0x08
    12a2:	28 17       	cp	r18, r24
    12a4:	39 07       	cpc	r19, r25
    12a6:	09 f0       	breq	.+2      	; 0x12aa <nwkRxTaskHandler+0x11c>
    12a8:	33 c1       	rjmp	.+614    	; 0x1510 <nwkRxTaskHandler+0x382>
            nwkRouteRemove(header->nwkDstAddr);
    12aa:	87 85       	ldd	r24, Z+15	; 0x0f
    12ac:	90 89       	ldd	r25, Z+16	; 0x10
    12ae:	0e 94 1c 07 	call	0xe38	; 0xe38 <nwkRouteRemove>
    12b2:	2e c1       	rjmp	.+604    	; 0x1510 <nwkRxTaskHandler+0x382>
        }
      }
    }
    else // ttl == 0
    {
      free = i;
    12b4:	64 2f       	mov	r22, r20
    12b6:	4f 5f       	subi	r20, 0xFF	; 255
    12b8:	5f 4f       	sbci	r21, 0xFF	; 255
    12ba:	35 96       	adiw	r30, 0x05	; 5
*****************************************************************************/
static bool nwkRxRejectDuplicate(NwkFrameHeader_t *header)
{
  int8_t free = -1;

  for (uint8_t i = 0; i < NWK_DUPLICATE_REJECTION_TABLE_SIZE; i++)
    12bc:	4a 30       	cpi	r20, 0x0A	; 10
    12be:	51 05       	cpc	r21, r1
    12c0:	21 f6       	brne	.-120    	; 0x124a <nwkRxTaskHandler+0xbc>
    {
      free = i;
    }
  }

  if (-1 == free)
    12c2:	6f 3f       	cpi	r22, 0xFF	; 255
    12c4:	09 f4       	brne	.+2      	; 0x12c8 <nwkRxTaskHandler+0x13a>
    12c6:	24 c1       	rjmp	.+584    	; 0x1510 <nwkRxTaskHandler+0x382>
    return true;

  nwkRxDuplicateRejectionTable[free].src = header->nwkSrcAddr;
    12c8:	86 2f       	mov	r24, r22
    12ca:	99 27       	eor	r25, r25
    12cc:	87 fd       	sbrc	r24, 7
    12ce:	90 95       	com	r25
    12d0:	fc 01       	movw	r30, r24
    12d2:	ee 0f       	add	r30, r30
    12d4:	ff 1f       	adc	r31, r31
    12d6:	ee 0f       	add	r30, r30
    12d8:	ff 1f       	adc	r31, r31
    12da:	e8 0f       	add	r30, r24
    12dc:	f9 1f       	adc	r31, r25
    12de:	e6 54       	subi	r30, 0x46	; 70
    12e0:	f8 4f       	sbci	r31, 0xF8	; 248
    12e2:	d7 01       	movw	r26, r14
    12e4:	1d 96       	adiw	r26, 0x0d	; 13
    12e6:	8d 91       	ld	r24, X+
    12e8:	9c 91       	ld	r25, X
    12ea:	1e 97       	sbiw	r26, 0x0e	; 14
    12ec:	91 83       	std	Z+1, r25	; 0x01
    12ee:	80 83       	st	Z, r24
  nwkRxDuplicateRejectionTable[free].seq = header->nwkSeq;
    12f0:	1c 96       	adiw	r26, 0x0c	; 12
    12f2:	8c 91       	ld	r24, X
    12f4:	82 83       	std	Z+2, r24	; 0x02
  nwkRxDuplicateRejectionTable[free].ttl = DUPLICATE_REJECTION_TTL;
    12f6:	87 e9       	ldi	r24, 0x97	; 151
    12f8:	90 e0       	ldi	r25, 0x00	; 0
    12fa:	94 83       	std	Z+4, r25	; 0x04
    12fc:	83 83       	std	Z+3, r24	; 0x03

  SYS_TimerStart(&nwkRxDuplicateRejectionTimer);
    12fe:	8d ee       	ldi	r24, 0xED	; 237
    1300:	97 e0       	ldi	r25, 0x07	; 7
    1302:	0e 94 b1 0e 	call	0x1d62	; 0x1d62 <SYS_TimerStart>
#endif

  if (nwkRxRejectDuplicate(header))
    return;

  if (0xffff == header->macDstAddr && nwkIb.addr != header->nwkDstAddr &&
    1306:	f7 01       	movw	r30, r14
    1308:	87 81       	ldd	r24, Z+7	; 0x07
    130a:	90 85       	ldd	r25, Z+8	; 0x08
    130c:	ff ef       	ldi	r31, 0xFF	; 255
    130e:	8f 3f       	cpi	r24, 0xFF	; 255
    1310:	9f 07       	cpc	r25, r31
    1312:	d9 f4       	brne	.+54     	; 0x134a <nwkRxTaskHandler+0x1bc>
    1314:	20 91 fa 08 	lds	r18, 0x08FA
    1318:	30 91 fb 08 	lds	r19, 0x08FB
    131c:	d7 01       	movw	r26, r14
    131e:	1f 96       	adiw	r26, 0x0f	; 15
    1320:	8d 91       	ld	r24, X+
    1322:	9c 91       	ld	r25, X
    1324:	50 97       	sbiw	r26, 0x10	; 16
    1326:	28 17       	cp	r18, r24
    1328:	39 07       	cpc	r19, r25
    132a:	79 f0       	breq	.+30     	; 0x134a <nwkRxTaskHandler+0x1bc>
    132c:	15 96       	adiw	r26, 0x05	; 5
    132e:	8d 91       	ld	r24, X+
    1330:	9c 91       	ld	r25, X
    1332:	16 97       	sbiw	r26, 0x06	; 6
    1334:	bf ef       	ldi	r27, 0xFF	; 255
    1336:	8f 3f       	cpi	r24, 0xFF	; 255
    1338:	9b 07       	cpc	r25, r27
    133a:	39 f0       	breq	.+14     	; 0x134a <nwkRxTaskHandler+0x1bc>
      0xffff != header->macDstPanId && 0 == header->nwkFcf.linkLocal)
    133c:	f7 01       	movw	r30, r14
    133e:	83 85       	ldd	r24, Z+11	; 0x0b
    1340:	82 fd       	sbrc	r24, 2
    1342:	03 c0       	rjmp	.+6      	; 0x134a <nwkRxTaskHandler+0x1bc>
    nwkTxBroadcastFrame(frame);
    1344:	c7 01       	movw	r24, r14
    1346:	0e 94 2b 0b 	call	0x1656	; 0x1656 <nwkTxBroadcastFrame>

  if (nwkIb.addr == header->nwkDstAddr || 0xffff == header->nwkDstAddr)
    134a:	80 91 fa 08 	lds	r24, 0x08FA
    134e:	90 91 fb 08 	lds	r25, 0x08FB
    1352:	d7 01       	movw	r26, r14
    1354:	1f 96       	adiw	r26, 0x0f	; 15
    1356:	2d 91       	ld	r18, X+
    1358:	3c 91       	ld	r19, X
    135a:	50 97       	sbiw	r26, 0x10	; 16
    135c:	82 17       	cp	r24, r18
    135e:	93 07       	cpc	r25, r19
    1360:	21 f0       	breq	.+8      	; 0x136a <nwkRxTaskHandler+0x1dc>
    1362:	bf ef       	ldi	r27, 0xFF	; 255
    1364:	2f 3f       	cpi	r18, 0xFF	; 255
    1366:	3b 07       	cpc	r19, r27
    1368:	19 f4       	brne	.+6      	; 0x1370 <nwkRxTaskHandler+0x1e2>
#ifdef NWK_ENABLE_SECURITY
    if (header->nwkFcf.securityEnabled)
      frame->state = NWK_RX_STATE_DECRYPT;
    else
#endif
      frame->state = NWK_RX_STATE_INDICATE;
    136a:	f7 01       	movw	r30, r14
    136c:	b0 82       	st	Z, r11
    136e:	d0 c0       	rjmp	.+416    	; 0x1510 <nwkRxTaskHandler+0x382>
  }
#ifdef NWK_ENABLE_ROUTING
  else if (nwkIb.addr == header->macDstAddr && 0xffff != header->macDstPanId)
    1370:	d7 01       	movw	r26, r14
    1372:	17 96       	adiw	r26, 0x07	; 7
    1374:	2d 91       	ld	r18, X+
    1376:	3c 91       	ld	r19, X
    1378:	18 97       	sbiw	r26, 0x08	; 8
    137a:	82 17       	cp	r24, r18
    137c:	93 07       	cpc	r25, r19
    137e:	09 f0       	breq	.+2      	; 0x1382 <nwkRxTaskHandler+0x1f4>
    1380:	c7 c0       	rjmp	.+398    	; 0x1510 <nwkRxTaskHandler+0x382>
    1382:	15 96       	adiw	r26, 0x05	; 5
    1384:	8d 91       	ld	r24, X+
    1386:	9c 91       	ld	r25, X
    1388:	16 97       	sbiw	r26, 0x06	; 6
    138a:	bf ef       	ldi	r27, 0xFF	; 255
    138c:	8f 3f       	cpi	r24, 0xFF	; 255
    138e:	9b 07       	cpc	r25, r27
    1390:	09 f4       	brne	.+2      	; 0x1394 <nwkRxTaskHandler+0x206>
    1392:	be c0       	rjmp	.+380    	; 0x1510 <nwkRxTaskHandler+0x382>
  {
    frame->state = NWK_RX_STATE_ROUTE;
    1394:	f7 01       	movw	r30, r14
    1396:	a0 82       	st	Z, r10
    1398:	bb c0       	rjmp	.+374    	; 0x1510 <nwkRxTaskHandler+0x382>
      case NWK_RX_STATE_INDICATE:
      {
        NwkFrameHeader_t *header = &frame->data.header;
        bool ack, forceAck;

        nwkRxAckControl = NWK_ACK_CONTROL_NONE;
    139a:	10 92 b9 07 	sts	0x07B9, r1
static bool nwkRxIndicateFrame(NwkFrame_t *frame)
{
  NwkFrameHeader_t *header = &frame->data.header;
  NWK_DataInd_t ind;

  if (header->nwkDstEndpoint > NWK_MAX_ENDPOINTS_AMOUNT || 
    139e:	d7 01       	movw	r26, r14
    13a0:	51 96       	adiw	r26, 0x11	; 17
    13a2:	8c 91       	ld	r24, X
    13a4:	51 97       	sbiw	r26, 0x11	; 17
    13a6:	82 95       	swap	r24
    13a8:	8f 70       	andi	r24, 0x0F	; 15
    13aa:	e8 2f       	mov	r30, r24
    13ac:	f0 e0       	ldi	r31, 0x00	; 0
    13ae:	e4 30       	cpi	r30, 0x04	; 4
    13b0:	f1 05       	cpc	r31, r1
    13b2:	0c f0       	brlt	.+2      	; 0x13b6 <nwkRxTaskHandler+0x228>
    13b4:	5e c0       	rjmp	.+188    	; 0x1472 <nwkRxTaskHandler+0x2e4>
      NULL == nwkIb.endpoint[header->nwkDstEndpoint])
    13b6:	ee 0f       	add	r30, r30
    13b8:	ff 1f       	adc	r31, r31
    13ba:	e0 50       	subi	r30, 0x00	; 0
    13bc:	f7 4f       	sbci	r31, 0xF7	; 247
    13be:	40 81       	ld	r20, Z
    13c0:	51 81       	ldd	r21, Z+1	; 0x01
static bool nwkRxIndicateFrame(NwkFrame_t *frame)
{
  NwkFrameHeader_t *header = &frame->data.header;
  NWK_DataInd_t ind;

  if (header->nwkDstEndpoint > NWK_MAX_ENDPOINTS_AMOUNT || 
    13c2:	41 15       	cp	r20, r1
    13c4:	51 05       	cpc	r21, r1
    13c6:	09 f4       	brne	.+2      	; 0x13ca <nwkRxTaskHandler+0x23c>
    13c8:	54 c0       	rjmp	.+168    	; 0x1472 <nwkRxTaskHandler+0x2e4>
      NULL == nwkIb.endpoint[header->nwkDstEndpoint])
    return false;

  ind.srcAddr = header->nwkSrcAddr;
    13ca:	1d 96       	adiw	r26, 0x0d	; 13
    13cc:	2d 91       	ld	r18, X+
    13ce:	3c 91       	ld	r19, X
    13d0:	1e 97       	sbiw	r26, 0x0e	; 14
    13d2:	3a 83       	std	Y+2, r19	; 0x02
    13d4:	29 83       	std	Y+1, r18	; 0x01
  ind.srcEndpoint = header->nwkSrcEndpoint;
    13d6:	51 96       	adiw	r26, 0x11	; 17
    13d8:	9c 91       	ld	r25, X
    13da:	51 97       	sbiw	r26, 0x11	; 17
    13dc:	9f 70       	andi	r25, 0x0F	; 15
    13de:	9b 83       	std	Y+3, r25	; 0x03
  ind.dstEndpoint = header->nwkDstEndpoint;
    13e0:	8c 83       	std	Y+4, r24	; 0x04
  ind.data = frame->data.payload;
    13e2:	c7 01       	movw	r24, r14
    13e4:	42 96       	adiw	r24, 0x12	; 18
    13e6:	9f 83       	std	Y+7, r25	; 0x07
    13e8:	8e 83       	std	Y+6, r24	; 0x06
  ind.size = frame->size - sizeof(NwkFrameHeader_t);
    13ea:	11 96       	adiw	r26, 0x01	; 1
    13ec:	8c 91       	ld	r24, X
    13ee:	11 97       	sbiw	r26, 0x01	; 1
    13f0:	80 51       	subi	r24, 0x10	; 16
    13f2:	88 87       	std	Y+8, r24	; 0x08
  ind.lqi = frame->rx.lqi;
    13f4:	f7 01       	movw	r30, r14
    13f6:	e1 58       	subi	r30, 0x81	; 129
    13f8:	ff 4f       	sbci	r31, 0xFF	; 255
    13fa:	80 81       	ld	r24, Z
    13fc:	89 87       	std	Y+9, r24	; 0x09
  ind.rssi = frame->rx.rssi;
    13fe:	f7 01       	movw	r30, r14
    1400:	e0 58       	subi	r30, 0x80	; 128
    1402:	ff 4f       	sbci	r31, 0xFF	; 255
    1404:	80 81       	ld	r24, Z
    1406:	8a 87       	std	Y+10, r24	; 0x0a

  ind.options  = (header->nwkFcf.ackRequest) ? NWK_IND_OPT_ACK_REQUESTED : 0;
    1408:	f7 01       	movw	r30, r14
    140a:	73 85       	ldd	r23, Z+11	; 0x0b
  ind.options |= (header->nwkFcf.securityEnabled) ? NWK_IND_OPT_SECURED : 0;
    140c:	67 2f       	mov	r22, r23
    140e:	63 70       	andi	r22, 0x03	; 3
  ind.options |= (header->nwkFcf.linkLocal) ? NWK_IND_OPT_LINK_LOCAL : 0;
    1410:	72 ff       	sbrs	r23, 2
    1412:	02 c0       	rjmp	.+4      	; 0x1418 <nwkRxTaskHandler+0x28a>
    1414:	80 e2       	ldi	r24, 0x20	; 32
    1416:	01 c0       	rjmp	.+2      	; 0x141a <nwkRxTaskHandler+0x28c>
    1418:	80 e0       	ldi	r24, 0x00	; 0
    141a:	76 2f       	mov	r23, r22
    141c:	78 2b       	or	r23, r24
  ind.options |= (0xffff == header->nwkDstAddr) ? NWK_IND_OPT_BROADCAST : 0;
    141e:	d7 01       	movw	r26, r14
    1420:	1f 96       	adiw	r26, 0x0f	; 15
    1422:	8d 91       	ld	r24, X+
    1424:	9c 91       	ld	r25, X
    1426:	50 97       	sbiw	r26, 0x10	; 16
    1428:	bf ef       	ldi	r27, 0xFF	; 255
    142a:	8f 3f       	cpi	r24, 0xFF	; 255
    142c:	9b 07       	cpc	r25, r27
    142e:	11 f4       	brne	.+4      	; 0x1434 <nwkRxTaskHandler+0x2a6>
    1430:	64 e0       	ldi	r22, 0x04	; 4
    1432:	01 c0       	rjmp	.+2      	; 0x1436 <nwkRxTaskHandler+0x2a8>
    1434:	60 e0       	ldi	r22, 0x00	; 0
    1436:	67 2b       	or	r22, r23
  ind.options |= (header->nwkSrcAddr == header->macSrcAddr) ? NWK_IND_OPT_LOCAL : 0;
    1438:	f7 01       	movw	r30, r14
    143a:	81 85       	ldd	r24, Z+9	; 0x09
    143c:	92 85       	ldd	r25, Z+10	; 0x0a
    143e:	28 17       	cp	r18, r24
    1440:	39 07       	cpc	r19, r25
    1442:	11 f4       	brne	.+4      	; 0x1448 <nwkRxTaskHandler+0x2ba>
    1444:	98 e0       	ldi	r25, 0x08	; 8
    1446:	01 c0       	rjmp	.+2      	; 0x144a <nwkRxTaskHandler+0x2bc>
    1448:	90 e0       	ldi	r25, 0x00	; 0
    144a:	69 2b       	or	r22, r25
  ind.options |= (0xffff == header->macDstPanId) ? NWK_IND_OPT_BROADCAST_PAN_ID : 0;
    144c:	d7 01       	movw	r26, r14
    144e:	15 96       	adiw	r26, 0x05	; 5
    1450:	8d 91       	ld	r24, X+
    1452:	9c 91       	ld	r25, X
    1454:	16 97       	sbiw	r26, 0x06	; 6
    1456:	bf ef       	ldi	r27, 0xFF	; 255
    1458:	8f 3f       	cpi	r24, 0xFF	; 255
    145a:	9b 07       	cpc	r25, r27
    145c:	11 f4       	brne	.+4      	; 0x1462 <nwkRxTaskHandler+0x2d4>
    145e:	80 e1       	ldi	r24, 0x10	; 16
    1460:	01 c0       	rjmp	.+2      	; 0x1464 <nwkRxTaskHandler+0x2d6>
    1462:	80 e0       	ldi	r24, 0x00	; 0
    1464:	86 2b       	or	r24, r22
    1466:	8d 83       	std	Y+5, r24	; 0x05

  return nwkIb.endpoint[header->nwkDstEndpoint](&ind);
    1468:	ce 01       	movw	r24, r28
    146a:	01 96       	adiw	r24, 0x01	; 1
    146c:	fa 01       	movw	r30, r20
    146e:	09 95       	icall
    1470:	01 c0       	rjmp	.+2      	; 0x1474 <nwkRxTaskHandler+0x2e6>
  NwkFrameHeader_t *header = &frame->data.header;
  NWK_DataInd_t ind;

  if (header->nwkDstEndpoint > NWK_MAX_ENDPOINTS_AMOUNT || 
      NULL == nwkIb.endpoint[header->nwkDstEndpoint])
    return false;
    1472:	80 e0       	ldi	r24, 0x00	; 0
        NwkFrameHeader_t *header = &frame->data.header;
        bool ack, forceAck;

        nwkRxAckControl = NWK_ACK_CONTROL_NONE;
        ack = nwkRxIndicateFrame(frame);
        forceAck = (0xffff == header->macDstAddr && nwkIb.addr == header->nwkDstAddr);
    1474:	f7 01       	movw	r30, r14
    1476:	27 81       	ldd	r18, Z+7	; 0x07
    1478:	30 85       	ldd	r19, Z+8	; 0x08
    147a:	ff ef       	ldi	r31, 0xFF	; 255
    147c:	2f 3f       	cpi	r18, 0xFF	; 255
    147e:	3f 07       	cpc	r19, r31
    1480:	71 f4       	brne	.+28     	; 0x149e <nwkRxTaskHandler+0x310>
#endif
}

/*****************************************************************************
*****************************************************************************/
void nwkRxTaskHandler(void)
    1482:	61 e0       	ldi	r22, 0x01	; 1
    1484:	70 e0       	ldi	r23, 0x00	; 0
    1486:	20 91 fa 08 	lds	r18, 0x08FA
    148a:	30 91 fb 08 	lds	r19, 0x08FB
    148e:	d7 01       	movw	r26, r14
    1490:	1f 96       	adiw	r26, 0x0f	; 15
    1492:	4d 91       	ld	r20, X+
    1494:	5c 91       	ld	r21, X
    1496:	50 97       	sbiw	r26, 0x10	; 16
    1498:	24 17       	cp	r18, r20
    149a:	35 07       	cpc	r19, r21
    149c:	11 f0       	breq	.+4      	; 0x14a2 <nwkRxTaskHandler+0x314>
        NwkFrameHeader_t *header = &frame->data.header;
        bool ack, forceAck;

        nwkRxAckControl = NWK_ACK_CONTROL_NONE;
        ack = nwkRxIndicateFrame(frame);
        forceAck = (0xffff == header->macDstAddr && nwkIb.addr == header->nwkDstAddr);
    149e:	60 e0       	ldi	r22, 0x00	; 0
    14a0:	70 e0       	ldi	r23, 0x00	; 0

        if ((header->nwkFcf.ackRequest && ack) || forceAck)
    14a2:	f7 01       	movw	r30, r14
    14a4:	93 85       	ldd	r25, Z+11	; 0x0b
    14a6:	90 ff       	sbrs	r25, 0
    14a8:	02 c0       	rjmp	.+4      	; 0x14ae <nwkRxTaskHandler+0x320>
    14aa:	88 23       	and	r24, r24
    14ac:	19 f4       	brne	.+6      	; 0x14b4 <nwkRxTaskHandler+0x326>
    14ae:	61 15       	cp	r22, r1
    14b0:	71 05       	cpc	r23, r1
    14b2:	f9 f0       	breq	.+62     	; 0x14f2 <nwkRxTaskHandler+0x364>
static void nwkRxSendAck(NwkFrame_t *frame)
{
  NwkFrame_t *ack;
  NwkAckCommand_t *command;

  if (NULL == (ack = nwkFrameAlloc(sizeof(NwkAckCommand_t))))
    14b4:	83 e0       	ldi	r24, 0x03	; 3
    14b6:	0e 94 8d 06 	call	0xd1a	; 0xd1a <nwkFrameAlloc>
    14ba:	8c 01       	movw	r16, r24
    14bc:	00 97       	sbiw	r24, 0x00	; 0
    14be:	c9 f0       	breq	.+50     	; 0x14f2 <nwkRxTaskHandler+0x364>
    return;

  nwkFrameCommandInit(ack);
    14c0:	0e 94 c4 06 	call	0xd88	; 0xd88 <nwkFrameCommandInit>

  ack->tx.confirm = nwkRxSendAckConf;
    14c4:	f8 01       	movw	r30, r16
    14c6:	ed 57       	subi	r30, 0x7D	; 125
    14c8:	ff 4f       	sbci	r31, 0xFF	; 255
    14ca:	91 82       	std	Z+1, r9	; 0x01
    14cc:	80 82       	st	Z, r8

  ack->data.header.nwkDstAddr = frame->data.header.nwkSrcAddr;
    14ce:	d7 01       	movw	r26, r14
    14d0:	1d 96       	adiw	r26, 0x0d	; 13
    14d2:	8d 91       	ld	r24, X+
    14d4:	9c 91       	ld	r25, X
    14d6:	1e 97       	sbiw	r26, 0x0e	; 14
    14d8:	f8 01       	movw	r30, r16
    14da:	90 8b       	std	Z+16, r25	; 0x10
    14dc:	87 87       	std	Z+15, r24	; 0x0f

  command = (NwkAckCommand_t *)ack->data.payload;

  command->id = NWK_COMMAND_ACK;
    14de:	12 8a       	std	Z+18, r1	; 0x12
  command->control = nwkRxAckControl;
    14e0:	80 91 b9 07 	lds	r24, 0x07B9
    14e4:	84 8b       	std	Z+20, r24	; 0x14
  command->seq = frame->data.header.nwkSeq;
    14e6:	1c 96       	adiw	r26, 0x0c	; 12
    14e8:	8c 91       	ld	r24, X
    14ea:	83 8b       	std	Z+19, r24	; 0x13

  nwkTxFrame(ack);
    14ec:	c8 01       	movw	r24, r16
    14ee:	0e 94 ee 0a 	call	0x15dc	; 0x15dc <nwkTxFrame>
        forceAck = (0xffff == header->macDstAddr && nwkIb.addr == header->nwkDstAddr);

        if ((header->nwkFcf.ackRequest && ack) || forceAck)
          nwkRxSendAck(frame);

        frame->state = NWK_RX_STATE_FINISH;
    14f2:	d7 01       	movw	r26, r14
    14f4:	cc 92       	st	X, r12
      } break;
    14f6:	0c c0       	rjmp	.+24     	; 0x1510 <nwkRxTaskHandler+0x382>

#ifdef NWK_ENABLE_ROUTING
      case NWK_RX_STATE_ROUTE:
      {
        nwkRouteFrame(frame);
    14f8:	c7 01       	movw	r24, r14
    14fa:	0e 94 e5 07 	call	0xfca	; 0xfca <nwkRouteFrame>
    14fe:	03 c0       	rjmp	.+6      	; 0x1506 <nwkRxTaskHandler+0x378>
      } break;
#endif

      case NWK_RX_STATE_FINISH:
      {
        nwkFrameFree(frame);
    1500:	c7 01       	movw	r24, r14
    1502:	0e 94 b3 06 	call	0xd66	; 0xd66 <nwkFrameFree>
        --nwkRxActiveFrames;
    1506:	80 91 ec 07 	lds	r24, 0x07EC
    150a:	81 50       	subi	r24, 0x01	; 1
    150c:	80 93 ec 07 	sts	0x07EC, r24
      } break;
    1510:	d3 94       	inc	r13
void nwkRxTaskHandler(void)
{
  if (0 == nwkRxActiveFrames)
    return;

  for (int i = 0; i < NWK_BUFFERS_AMOUNT; i++)
    1512:	b3 e0       	ldi	r27, 0x03	; 3
    1514:	db 16       	cp	r13, r27
    1516:	09 f0       	breq	.+2      	; 0x151a <nwkRxTaskHandler+0x38c>
    1518:	5e ce       	rjmp	.-836    	; 0x11d6 <nwkRxTaskHandler+0x48>
        nwkFrameFree(frame);
        --nwkRxActiveFrames;
      } break;
    }
  }
}
    151a:	2a 96       	adiw	r28, 0x0a	; 10
    151c:	0f b6       	in	r0, 0x3f	; 63
    151e:	f8 94       	cli
    1520:	de bf       	out	0x3e, r29	; 62
    1522:	0f be       	out	0x3f, r0	; 63
    1524:	cd bf       	out	0x3d, r28	; 61
    1526:	df 91       	pop	r29
    1528:	cf 91       	pop	r28
    152a:	1f 91       	pop	r17
    152c:	0f 91       	pop	r16
    152e:	ff 90       	pop	r15
    1530:	ef 90       	pop	r14
    1532:	df 90       	pop	r13
    1534:	cf 90       	pop	r12
    1536:	bf 90       	pop	r11
    1538:	af 90       	pop	r10
    153a:	9f 90       	pop	r9
    153c:	8f 90       	pop	r8
    153e:	08 95       	ret

00001540 <nwkTxBroadcastConf>:

/*****************************************************************************
*****************************************************************************/
static void nwkTxBroadcastConf(NwkFrame_t *frame)
{
  nwkFrameFree(frame);
    1540:	0e 94 b3 06 	call	0xd66	; 0xd66 <nwkFrameFree>
}
    1544:	08 95       	ret

00001546 <nwkTxAckWaitTimerHandler>:
}

/*****************************************************************************
*****************************************************************************/
static void nwkTxAckWaitTimerHandler(SYS_Timer_t *timer)
{
    1546:	ef 92       	push	r14
    1548:	ff 92       	push	r15
    154a:	1f 93       	push	r17
    154c:	cf 93       	push	r28
    154e:	df 93       	push	r29
    1550:	7c 01       	movw	r14, r24
  if (0 == nwkTxActiveFrames)
    1552:	80 91 fc 07 	lds	r24, 0x07FC
    1556:	88 23       	and	r24, r24
    1558:	01 f1       	breq	.+64     	; 0x159a <nwkTxAckWaitTimerHandler+0x54>
    155a:	c0 e0       	ldi	r28, 0x00	; 0
  {
    NwkFrame_t *frame = nwkFrameByIndex(i);

    if (NWK_TX_STATE_WAIT_ACK == frame->state && 0 == --frame->tx.timeout)
    {
      frame->state = NWK_TX_STATE_CONFIRM;
    155c:	d5 e1       	ldi	r29, 0x15	; 21
      frame->tx.status = NWK_NO_ACK_STATUS;
    155e:	10 e1       	ldi	r17, 0x10	; 16
  if (0 == nwkTxActiveFrames)
    return;

  for (int i = 0; i < NWK_BUFFERS_AMOUNT; i++)
  {
    NwkFrame_t *frame = nwkFrameByIndex(i);
    1560:	8c 2f       	mov	r24, r28
    1562:	0e 94 b6 06 	call	0xd6c	; 0xd6c <nwkFrameByIndex>
    1566:	dc 01       	movw	r26, r24

    if (NWK_TX_STATE_WAIT_ACK == frame->state && 0 == --frame->tx.timeout)
    1568:	8c 91       	ld	r24, X
    156a:	84 31       	cpi	r24, 0x14	; 20
    156c:	81 f4       	brne	.+32     	; 0x158e <nwkTxAckWaitTimerHandler+0x48>
    156e:	fd 01       	movw	r30, r26
    1570:	e0 58       	subi	r30, 0x80	; 128
    1572:	ff 4f       	sbci	r31, 0xFF	; 255
    1574:	20 81       	ld	r18, Z
    1576:	31 81       	ldd	r19, Z+1	; 0x01
    1578:	21 50       	subi	r18, 0x01	; 1
    157a:	30 40       	sbci	r19, 0x00	; 0
    157c:	31 83       	std	Z+1, r19	; 0x01
    157e:	20 83       	st	Z, r18
    1580:	21 15       	cp	r18, r1
    1582:	31 05       	cpc	r19, r1
    1584:	21 f4       	brne	.+8      	; 0x158e <nwkTxAckWaitTimerHandler+0x48>
    {
      frame->state = NWK_TX_STATE_CONFIRM;
    1586:	dc 93       	st	X, r29
      frame->tx.status = NWK_NO_ACK_STATUS;
    1588:	a1 58       	subi	r26, 0x81	; 129
    158a:	bf 4f       	sbci	r27, 0xFF	; 255
    158c:	1c 93       	st	X, r17
    158e:	cf 5f       	subi	r28, 0xFF	; 255
static void nwkTxAckWaitTimerHandler(SYS_Timer_t *timer)
{
  if (0 == nwkTxActiveFrames)
    return;

  for (int i = 0; i < NWK_BUFFERS_AMOUNT; i++)
    1590:	c3 30       	cpi	r28, 0x03	; 3
    1592:	31 f7       	brne	.-52     	; 0x1560 <nwkTxAckWaitTimerHandler+0x1a>
      frame->state = NWK_TX_STATE_CONFIRM;
      frame->tx.status = NWK_NO_ACK_STATUS;
    }
  }

  SYS_TimerStart(timer);
    1594:	c7 01       	movw	r24, r14
    1596:	0e 94 b1 0e 	call	0x1d62	; 0x1d62 <SYS_TimerStart>
}
    159a:	df 91       	pop	r29
    159c:	cf 91       	pop	r28
    159e:	1f 91       	pop	r17
    15a0:	ff 90       	pop	r15
    15a2:	ef 90       	pop	r14
    15a4:	08 95       	ret

000015a6 <nwkTxInit>:

/*****************************************************************************
*****************************************************************************/
void nwkTxInit(void)
{
  nwkTxPhyActiveFrame = NULL;
    15a6:	10 92 fb 07 	sts	0x07FB, r1
    15aa:	10 92 fa 07 	sts	0x07FA, r1
  nwkTxActiveFrames = 0;
    15ae:	10 92 fc 07 	sts	0x07FC, r1

  nwkTxAckWaitTimer.interval = NWK_TX_ACK_WAIT_TIMER_INTERVAL;
    15b2:	82 e3       	ldi	r24, 0x32	; 50
    15b4:	90 e0       	ldi	r25, 0x00	; 0
    15b6:	a0 e0       	ldi	r26, 0x00	; 0
    15b8:	b0 e0       	ldi	r27, 0x00	; 0
    15ba:	80 93 03 08 	sts	0x0803, r24
    15be:	90 93 04 08 	sts	0x0804, r25
    15c2:	a0 93 05 08 	sts	0x0805, r26
    15c6:	b0 93 06 08 	sts	0x0806, r27
  nwkTxAckWaitTimer.mode = SYS_TIMER_INTERVAL_MODE;
    15ca:	10 92 07 08 	sts	0x0807, r1
  nwkTxAckWaitTimer.handler = nwkTxAckWaitTimerHandler;
    15ce:	83 ea       	ldi	r24, 0xA3	; 163
    15d0:	9a e0       	ldi	r25, 0x0A	; 10
    15d2:	90 93 09 08 	sts	0x0809, r25
    15d6:	80 93 08 08 	sts	0x0808, r24
}
    15da:	08 95       	ret

000015dc <nwkTxFrame>:

/*****************************************************************************
*****************************************************************************/
void nwkTxFrame(NwkFrame_t *frame)
{
    15dc:	cf 93       	push	r28
    15de:	df 93       	push	r29
    15e0:	ec 01       	movw	r28, r24
  NwkFrameHeader_t *header = &frame->data.header;

  if (frame->tx.control & NWK_TX_CONTROL_ROUTING)
    15e2:	fc 01       	movw	r30, r24
    15e4:	ee 57       	subi	r30, 0x7E	; 126
    15e6:	ff 4f       	sbci	r31, 0xFF	; 255
    15e8:	80 81       	ld	r24, Z
  {
    frame->state = NWK_TX_STATE_SEND;
    15ea:	91 e1       	ldi	r25, 0x11	; 17
    15ec:	98 83       	st	Y, r25
    else
#endif
      frame->state = NWK_TX_STATE_SEND;
  }

  frame->tx.status = NWK_SUCCESS_STATUS;
    15ee:	fe 01       	movw	r30, r28
    15f0:	e1 58       	subi	r30, 0x81	; 129
    15f2:	ff 4f       	sbci	r31, 0xFF	; 255
    15f4:	10 82       	st	Z, r1

  if (frame->tx.control & NWK_TX_CONTROL_BROADCAST_PAN_ID)
    15f6:	80 ff       	sbrs	r24, 0
    15f8:	03 c0       	rjmp	.+6      	; 0x1600 <nwkTxFrame+0x24>
    frame->data.header.macDstPanId = 0xffff;
    15fa:	8f ef       	ldi	r24, 0xFF	; 255
    15fc:	9f ef       	ldi	r25, 0xFF	; 255
    15fe:	04 c0       	rjmp	.+8      	; 0x1608 <nwkTxFrame+0x2c>
  else
    frame->data.header.macDstPanId = nwkIb.panId;
    1600:	80 91 fc 08 	lds	r24, 0x08FC
    1604:	90 91 fd 08 	lds	r25, 0x08FD
    1608:	9e 83       	std	Y+6, r25	; 0x06
    160a:	8d 83       	std	Y+5, r24	; 0x05

#ifdef NWK_ENABLE_ROUTING
  header->macDstAddr = nwkRouteNextHop(header->nwkDstAddr);
    160c:	8f 85       	ldd	r24, Y+15	; 0x0f
    160e:	98 89       	ldd	r25, Y+16	; 0x10
    1610:	0e 94 c0 07 	call	0xf80	; 0xf80 <nwkRouteNextHop>
    1614:	98 87       	std	Y+8, r25	; 0x08
    1616:	8f 83       	std	Y+7, r24	; 0x07
#else
  header->macDstAddr = header->nwkDstAddr;
#endif
  header->macSrcAddr = nwkIb.addr;
    1618:	20 91 fa 08 	lds	r18, 0x08FA
    161c:	30 91 fb 08 	lds	r19, 0x08FB
    1620:	3a 87       	std	Y+10, r19	; 0x0a
    1622:	29 87       	std	Y+9, r18	; 0x09
  header->macSeq = ++nwkIb.macSeqNum;
    1624:	20 91 ff 08 	lds	r18, 0x08FF
    1628:	2f 5f       	subi	r18, 0xFF	; 255
    162a:	20 93 ff 08 	sts	0x08FF, r18
    162e:	2c 83       	std	Y+4, r18	; 0x04

  if (0xffff == header->macDstAddr)
    1630:	2f ef       	ldi	r18, 0xFF	; 255
    1632:	8f 3f       	cpi	r24, 0xFF	; 255
    1634:	92 07       	cpc	r25, r18
    1636:	19 f4       	brne	.+6      	; 0x163e <nwkTxFrame+0x62>
    header->macFcf = 0x8841;
    1638:	81 e4       	ldi	r24, 0x41	; 65
    163a:	98 e8       	ldi	r25, 0x88	; 136
    163c:	02 c0       	rjmp	.+4      	; 0x1642 <nwkTxFrame+0x66>
  else
    header->macFcf = 0x8861;
    163e:	81 e6       	ldi	r24, 0x61	; 97
    1640:	98 e8       	ldi	r25, 0x88	; 136
    1642:	9b 83       	std	Y+3, r25	; 0x03
    1644:	8a 83       	std	Y+2, r24	; 0x02

  ++nwkTxActiveFrames;
    1646:	80 91 fc 07 	lds	r24, 0x07FC
    164a:	8f 5f       	subi	r24, 0xFF	; 255
    164c:	80 93 fc 07 	sts	0x07FC, r24
}
    1650:	df 91       	pop	r29
    1652:	cf 91       	pop	r28
    1654:	08 95       	ret

00001656 <nwkTxBroadcastFrame>:

/*****************************************************************************
*****************************************************************************/
void nwkTxBroadcastFrame(NwkFrame_t *frame)
{
    1656:	0f 93       	push	r16
    1658:	1f 93       	push	r17
    165a:	cf 93       	push	r28
    165c:	df 93       	push	r29
    165e:	8c 01       	movw	r16, r24
  NwkFrame_t *newFrame;

  if (NULL == (newFrame = nwkFrameAlloc(frame->size - sizeof(NwkFrameHeader_t))))
    1660:	fc 01       	movw	r30, r24
    1662:	81 81       	ldd	r24, Z+1	; 0x01
    1664:	80 51       	subi	r24, 0x10	; 16
    1666:	0e 94 8d 06 	call	0xd1a	; 0xd1a <nwkFrameAlloc>
    166a:	ec 01       	movw	r28, r24
    166c:	00 97       	sbiw	r24, 0x00	; 0
    166e:	b1 f1       	breq	.+108    	; 0x16dc <nwkTxBroadcastFrame+0x86>
    return;

  newFrame->tx.confirm = nwkTxBroadcastConf;
    1670:	fc 01       	movw	r30, r24
    1672:	ed 57       	subi	r30, 0x7D	; 125
    1674:	ff 4f       	sbci	r31, 0xFF	; 255
    1676:	80 ea       	ldi	r24, 0xA0	; 160
    1678:	9a e0       	ldi	r25, 0x0A	; 10
    167a:	91 83       	std	Z+1, r25	; 0x01
    167c:	80 83       	st	Z, r24
  memcpy((uint8_t *)&newFrame->data, (uint8_t *)&frame->data, frame->size);
    167e:	ce 01       	movw	r24, r28
    1680:	02 96       	adiw	r24, 0x02	; 2
    1682:	f8 01       	movw	r30, r16
    1684:	41 81       	ldd	r20, Z+1	; 0x01
    1686:	b8 01       	movw	r22, r16
    1688:	6e 5f       	subi	r22, 0xFE	; 254
    168a:	7f 4f       	sbci	r23, 0xFF	; 255
    168c:	50 e0       	ldi	r21, 0x00	; 0
    168e:	0e 94 3d 12 	call	0x247a	; 0x247a <memcpy>

  newFrame->state = NWK_TX_STATE_SEND;
    1692:	81 e1       	ldi	r24, 0x11	; 17
    1694:	88 83       	st	Y, r24
  newFrame->tx.status = NWK_SUCCESS_STATUS;
    1696:	fe 01       	movw	r30, r28
    1698:	e1 58       	subi	r30, 0x81	; 129
    169a:	ff 4f       	sbci	r31, 0xFF	; 255
    169c:	10 82       	st	Z, r1

  newFrame->data.header.macFcf = 0x8841;
    169e:	81 e4       	ldi	r24, 0x41	; 65
    16a0:	98 e8       	ldi	r25, 0x88	; 136
    16a2:	9b 83       	std	Y+3, r25	; 0x03
    16a4:	8a 83       	std	Y+2, r24	; 0x02
  newFrame->data.header.macDstAddr = 0xffff;
    16a6:	8f ef       	ldi	r24, 0xFF	; 255
    16a8:	9f ef       	ldi	r25, 0xFF	; 255
    16aa:	98 87       	std	Y+8, r25	; 0x08
    16ac:	8f 83       	std	Y+7, r24	; 0x07
  newFrame->data.header.macDstPanId = nwkIb.panId;
    16ae:	80 91 fc 08 	lds	r24, 0x08FC
    16b2:	90 91 fd 08 	lds	r25, 0x08FD
    16b6:	9e 83       	std	Y+6, r25	; 0x06
    16b8:	8d 83       	std	Y+5, r24	; 0x05
  newFrame->data.header.macSrcAddr = nwkIb.addr;
    16ba:	80 91 fa 08 	lds	r24, 0x08FA
    16be:	90 91 fb 08 	lds	r25, 0x08FB
    16c2:	9a 87       	std	Y+10, r25	; 0x0a
    16c4:	89 87       	std	Y+9, r24	; 0x09
  newFrame->data.header.macSeq = ++nwkIb.macSeqNum;
    16c6:	80 91 ff 08 	lds	r24, 0x08FF
    16ca:	8f 5f       	subi	r24, 0xFF	; 255
    16cc:	80 93 ff 08 	sts	0x08FF, r24
    16d0:	8c 83       	std	Y+4, r24	; 0x04

  ++nwkTxActiveFrames;
    16d2:	80 91 fc 07 	lds	r24, 0x07FC
    16d6:	8f 5f       	subi	r24, 0xFF	; 255
    16d8:	80 93 fc 07 	sts	0x07FC, r24
}
    16dc:	df 91       	pop	r29
    16de:	cf 91       	pop	r28
    16e0:	1f 91       	pop	r17
    16e2:	0f 91       	pop	r16
    16e4:	08 95       	ret

000016e6 <nwkTxAckReceived>:
}

/*****************************************************************************
*****************************************************************************/
void nwkTxAckReceived(NWK_DataInd_t *ind)
{
    16e6:	1f 93       	push	r17
    16e8:	cf 93       	push	r28
    16ea:	df 93       	push	r29
  NwkAckCommand_t *command = (NwkAckCommand_t *)ind->data;
    16ec:	fc 01       	movw	r30, r24
    16ee:	c5 81       	ldd	r28, Z+5	; 0x05
    16f0:	d6 81       	ldd	r29, Z+6	; 0x06

  if (0 == nwkTxActiveFrames)
    16f2:	80 91 fc 07 	lds	r24, 0x07FC
    16f6:	88 23       	and	r24, r24
    16f8:	b1 f0       	breq	.+44     	; 0x1726 <nwkTxAckReceived+0x40>
    16fa:	10 e0       	ldi	r17, 0x00	; 0
    return;

  for (int i = 0; i < NWK_BUFFERS_AMOUNT; i++)
  {
    NwkFrame_t *frame = nwkFrameByIndex(i);
    16fc:	81 2f       	mov	r24, r17
    16fe:	0e 94 b6 06 	call	0xd6c	; 0xd6c <nwkFrameByIndex>
    1702:	fc 01       	movw	r30, r24

    if (NWK_TX_STATE_WAIT_ACK == frame->state && frame->data.header.nwkSeq == command->seq)
    1704:	80 81       	ld	r24, Z
    1706:	84 31       	cpi	r24, 0x14	; 20
    1708:	59 f4       	brne	.+22     	; 0x1720 <nwkTxAckReceived+0x3a>
    170a:	94 85       	ldd	r25, Z+12	; 0x0c
    170c:	89 81       	ldd	r24, Y+1	; 0x01
    170e:	98 17       	cp	r25, r24
    1710:	39 f4       	brne	.+14     	; 0x1720 <nwkTxAckReceived+0x3a>
    {
      frame->state = NWK_TX_STATE_CONFIRM;
    1712:	85 e1       	ldi	r24, 0x15	; 21
    1714:	80 83       	st	Z, r24
      frame->tx.control = command->control;
    1716:	8a 81       	ldd	r24, Y+2	; 0x02
    1718:	ee 57       	subi	r30, 0x7E	; 126
    171a:	ff 4f       	sbci	r31, 0xFF	; 255
    171c:	80 83       	st	Z, r24
      return;
    171e:	03 c0       	rjmp	.+6      	; 0x1726 <nwkTxAckReceived+0x40>
    1720:	1f 5f       	subi	r17, 0xFF	; 255
  NwkAckCommand_t *command = (NwkAckCommand_t *)ind->data;

  if (0 == nwkTxActiveFrames)
    return;

  for (int i = 0; i < NWK_BUFFERS_AMOUNT; i++)
    1722:	13 30       	cpi	r17, 0x03	; 3
    1724:	59 f7       	brne	.-42     	; 0x16fc <nwkTxAckReceived+0x16>
      frame->state = NWK_TX_STATE_CONFIRM;
      frame->tx.control = command->control;
      return;
    }
  }
}
    1726:	df 91       	pop	r29
    1728:	cf 91       	pop	r28
    172a:	1f 91       	pop	r17
    172c:	08 95       	ret

0000172e <nwkTxBusy>:

/*****************************************************************************
*****************************************************************************/
bool nwkTxBusy(void)
{
  return nwkTxActiveFrames > 0;
    172e:	81 e0       	ldi	r24, 0x01	; 1
    1730:	90 91 fc 07 	lds	r25, 0x07FC
    1734:	99 23       	and	r25, r25
    1736:	09 f4       	brne	.+2      	; 0x173a <nwkTxBusy+0xc>
    1738:	80 e0       	ldi	r24, 0x00	; 0
}
    173a:	08 95       	ret

0000173c <PHY_DataConf>:

/*****************************************************************************
*****************************************************************************/
void PHY_DataConf(uint8_t status)
{
  nwkTxPhyActiveFrame->tx.status = convertPhyStatus(status);
    173c:	e0 91 fa 07 	lds	r30, 0x07FA
    1740:	f0 91 fb 07 	lds	r31, 0x07FB

/*****************************************************************************
*****************************************************************************/
static uint8_t convertPhyStatus(uint8_t status)
{
  if (TRAC_STATUS_SUCCESS == status ||
    1744:	83 30       	cpi	r24, 0x03	; 3
    1746:	30 f0       	brcs	.+12     	; 0x1754 <PHY_DataConf+0x18>
      TRAC_STATUS_SUCCESS_DATA_PENDING == status ||
      TRAC_STATUS_SUCCESS_WAIT_FOR_ACK == status)
    return NWK_SUCCESS_STATUS;

  else if (TRAC_STATUS_CHANNEL_ACCESS_FAILURE == status)
    1748:	83 30       	cpi	r24, 0x03	; 3
    174a:	31 f0       	breq	.+12     	; 0x1758 <PHY_DataConf+0x1c>
    return NWK_PHY_CHANNEL_ACCESS_FAILURE_STATUS;

  else if (TRAC_STATUS_NO_ACK == status)
    174c:	85 30       	cpi	r24, 0x05	; 5
    174e:	31 f4       	brne	.+12     	; 0x175c <PHY_DataConf+0x20>
    return NWK_PHY_NO_ACK_STATUS;
    1750:	81 e2       	ldi	r24, 0x21	; 33
    1752:	05 c0       	rjmp	.+10     	; 0x175e <PHY_DataConf+0x22>
static uint8_t convertPhyStatus(uint8_t status)
{
  if (TRAC_STATUS_SUCCESS == status ||
      TRAC_STATUS_SUCCESS_DATA_PENDING == status ||
      TRAC_STATUS_SUCCESS_WAIT_FOR_ACK == status)
    return NWK_SUCCESS_STATUS;
    1754:	80 e0       	ldi	r24, 0x00	; 0
    1756:	03 c0       	rjmp	.+6      	; 0x175e <PHY_DataConf+0x22>

  else if (TRAC_STATUS_CHANNEL_ACCESS_FAILURE == status)
    return NWK_PHY_CHANNEL_ACCESS_FAILURE_STATUS;
    1758:	80 e2       	ldi	r24, 0x20	; 32
    175a:	01 c0       	rjmp	.+2      	; 0x175e <PHY_DataConf+0x22>

  else if (TRAC_STATUS_NO_ACK == status)
    return NWK_PHY_NO_ACK_STATUS;

  else
    return NWK_ERROR_STATUS;
    175c:	81 e0       	ldi	r24, 0x01	; 1

/*****************************************************************************
*****************************************************************************/
void PHY_DataConf(uint8_t status)
{
  nwkTxPhyActiveFrame->tx.status = convertPhyStatus(status);
    175e:	df 01       	movw	r26, r30
    1760:	a1 58       	subi	r26, 0x81	; 129
    1762:	bf 4f       	sbci	r27, 0xFF	; 255
    1764:	8c 93       	st	X, r24
  nwkTxPhyActiveFrame->state = NWK_TX_STATE_SENT;
    1766:	83 e1       	ldi	r24, 0x13	; 19
    1768:	80 83       	st	Z, r24
  nwkTxPhyActiveFrame = NULL;
    176a:	10 92 fb 07 	sts	0x07FB, r1
    176e:	10 92 fa 07 	sts	0x07FA, r1
}
    1772:	08 95       	ret

00001774 <nwkTxTaskHandler>:

/*****************************************************************************
*****************************************************************************/
void nwkTxTaskHandler(void)
{
    1774:	cf 92       	push	r12
    1776:	df 92       	push	r13
    1778:	ef 92       	push	r14
    177a:	ff 92       	push	r15
    177c:	0f 93       	push	r16
    177e:	1f 93       	push	r17
    1780:	cf 93       	push	r28
    1782:	df 93       	push	r29
  if (0 == nwkTxActiveFrames)
    1784:	80 91 fc 07 	lds	r24, 0x07FC
    1788:	88 23       	and	r24, r24
    178a:	09 f4       	brne	.+2      	; 0x178e <nwkTxTaskHandler+0x1a>
    178c:	55 c0       	rjmp	.+170    	; 0x1838 <nwkTxTaskHandler+0xc4>
    178e:	10 e0       	ldi	r17, 0x00	; 0
            frame->state = NWK_TX_STATE_CONFIRM;
          }
        }
        else
        {
          frame->state = NWK_TX_STATE_CONFIRM;
    1790:	05 e1       	ldi	r16, 0x15	; 21
        if (NWK_SUCCESS_STATUS == frame->tx.status)
        {
          if (frame->data.header.nwkSrcAddr == nwkIb.addr &&
              frame->data.header.nwkFcf.ackRequest)
          {
            frame->state = NWK_TX_STATE_WAIT_ACK;
    1792:	84 e1       	ldi	r24, 0x14	; 20
    1794:	f8 2e       	mov	r15, r24
            frame->tx.timeout = NWK_ACK_WAIT_TIME / NWK_TX_ACK_WAIT_TIMER_INTERVAL + 1;
    1796:	95 e1       	ldi	r25, 0x15	; 21
    1798:	c9 2e       	mov	r12, r25
    179a:	d1 2c       	mov	r13, r1
      case NWK_TX_STATE_SEND:
      {
        if (!PHY_Busy())
        {
          nwkTxPhyActiveFrame = frame;
          frame->state = NWK_TX_STATE_WAIT_CONF;
    179c:	22 e1       	ldi	r18, 0x12	; 18
    179e:	e2 2e       	mov	r14, r18
  if (0 == nwkTxActiveFrames)
    return;

  for (int i = 0; i < NWK_BUFFERS_AMOUNT; i++)
  {
    NwkFrame_t *frame = nwkFrameByIndex(i);
    17a0:	81 2f       	mov	r24, r17
    17a2:	0e 94 b6 06 	call	0xd6c	; 0xd6c <nwkFrameByIndex>
    17a6:	ec 01       	movw	r28, r24

    switch (frame->state)
    17a8:	88 81       	ld	r24, Y
    17aa:	83 31       	cpi	r24, 0x13	; 19
    17ac:	99 f0       	breq	.+38     	; 0x17d4 <nwkTxTaskHandler+0x60>
    17ae:	85 31       	cpi	r24, 0x15	; 21
    17b0:	79 f1       	breq	.+94     	; 0x1810 <nwkTxTaskHandler+0x9c>
    17b2:	81 31       	cpi	r24, 0x11	; 17
    17b4:	e9 f5       	brne	.+122    	; 0x1830 <nwkTxTaskHandler+0xbc>
      } break;
#endif

      case NWK_TX_STATE_SEND:
      {
        if (!PHY_Busy())
    17b6:	0e 94 c2 0c 	call	0x1984	; 0x1984 <PHY_Busy>
    17ba:	88 23       	and	r24, r24
    17bc:	c9 f5       	brne	.+114    	; 0x1830 <nwkTxTaskHandler+0xbc>
        {
          nwkTxPhyActiveFrame = frame;
    17be:	d0 93 fb 07 	sts	0x07FB, r29
    17c2:	c0 93 fa 07 	sts	0x07FA, r28
          frame->state = NWK_TX_STATE_WAIT_CONF;
    17c6:	e8 82       	st	Y, r14
          PHY_DataReq((uint8_t *)&frame->data, frame->size);
    17c8:	ce 01       	movw	r24, r28
    17ca:	02 96       	adiw	r24, 0x02	; 2
    17cc:	69 81       	ldd	r22, Y+1	; 0x01
    17ce:	0e 94 e9 0c 	call	0x19d2	; 0x19d2 <PHY_DataReq>
    17d2:	2e c0       	rjmp	.+92     	; 0x1830 <nwkTxTaskHandler+0xbc>
      case NWK_TX_STATE_WAIT_CONF:
        break;

      case NWK_TX_STATE_SENT:
      {
        if (NWK_SUCCESS_STATUS == frame->tx.status)
    17d4:	fe 01       	movw	r30, r28
    17d6:	e1 58       	subi	r30, 0x81	; 129
    17d8:	ff 4f       	sbci	r31, 0xFF	; 255
    17da:	80 81       	ld	r24, Z
    17dc:	88 23       	and	r24, r24
    17de:	b1 f4       	brne	.+44     	; 0x180c <nwkTxTaskHandler+0x98>
        {
          if (frame->data.header.nwkSrcAddr == nwkIb.addr &&
    17e0:	2d 85       	ldd	r18, Y+13	; 0x0d
    17e2:	3e 85       	ldd	r19, Y+14	; 0x0e
    17e4:	80 91 fa 08 	lds	r24, 0x08FA
    17e8:	90 91 fb 08 	lds	r25, 0x08FB
    17ec:	28 17       	cp	r18, r24
    17ee:	39 07       	cpc	r19, r25
    17f0:	69 f4       	brne	.+26     	; 0x180c <nwkTxTaskHandler+0x98>
    17f2:	8b 85       	ldd	r24, Y+11	; 0x0b
    17f4:	80 ff       	sbrs	r24, 0
    17f6:	0a c0       	rjmp	.+20     	; 0x180c <nwkTxTaskHandler+0x98>
              frame->data.header.nwkFcf.ackRequest)
          {
            frame->state = NWK_TX_STATE_WAIT_ACK;
    17f8:	f8 82       	st	Y, r15
            frame->tx.timeout = NWK_ACK_WAIT_TIME / NWK_TX_ACK_WAIT_TIMER_INTERVAL + 1;
    17fa:	c0 58       	subi	r28, 0x80	; 128
    17fc:	df 4f       	sbci	r29, 0xFF	; 255
    17fe:	d9 82       	std	Y+1, r13	; 0x01
    1800:	c8 82       	st	Y, r12
            SYS_TimerStart(&nwkTxAckWaitTimer);
    1802:	8d ef       	ldi	r24, 0xFD	; 253
    1804:	97 e0       	ldi	r25, 0x07	; 7
    1806:	0e 94 b1 0e 	call	0x1d62	; 0x1d62 <SYS_TimerStart>
    180a:	12 c0       	rjmp	.+36     	; 0x1830 <nwkTxTaskHandler+0xbc>
            frame->state = NWK_TX_STATE_CONFIRM;
          }
        }
        else
        {
          frame->state = NWK_TX_STATE_CONFIRM;
    180c:	08 83       	st	Y, r16
    180e:	10 c0       	rjmp	.+32     	; 0x1830 <nwkTxTaskHandler+0xbc>
        break;

      case NWK_TX_STATE_CONFIRM:
      {
#ifdef NWK_ENABLE_ROUTING
        nwkRouteFrameSent(frame);
    1810:	ce 01       	movw	r24, r28
    1812:	0e 94 67 07 	call	0xece	; 0xece <nwkRouteFrameSent>
#endif
        frame->tx.confirm(frame);
    1816:	fe 01       	movw	r30, r28
    1818:	ed 57       	subi	r30, 0x7D	; 125
    181a:	ff 4f       	sbci	r31, 0xFF	; 255
    181c:	01 90       	ld	r0, Z+
    181e:	f0 81       	ld	r31, Z
    1820:	e0 2d       	mov	r30, r0
    1822:	ce 01       	movw	r24, r28
    1824:	09 95       	icall
        --nwkTxActiveFrames;
    1826:	80 91 fc 07 	lds	r24, 0x07FC
    182a:	81 50       	subi	r24, 0x01	; 1
    182c:	80 93 fc 07 	sts	0x07FC, r24
      } break;
    1830:	1f 5f       	subi	r17, 0xFF	; 255
void nwkTxTaskHandler(void)
{
  if (0 == nwkTxActiveFrames)
    return;

  for (int i = 0; i < NWK_BUFFERS_AMOUNT; i++)
    1832:	13 30       	cpi	r17, 0x03	; 3
    1834:	09 f0       	breq	.+2      	; 0x1838 <nwkTxTaskHandler+0xc4>
    1836:	b4 cf       	rjmp	.-152    	; 0x17a0 <nwkTxTaskHandler+0x2c>

      default:
        break;
    };
  }
}
    1838:	df 91       	pop	r29
    183a:	cf 91       	pop	r28
    183c:	1f 91       	pop	r17
    183e:	0f 91       	pop	r16
    1840:	ff 90       	pop	r15
    1842:	ef 90       	pop	r14
    1844:	df 90       	pop	r13
    1846:	cf 90       	pop	r12
    1848:	08 95       	ret

0000184a <phyTrxSetState>:

/*****************************************************************************
*****************************************************************************/
static inline void phyTrxSetState(uint8_t state)
{
  TRX_STATE_REG = TRX_CMD_FORCE_TRX_OFF;
    184a:	93 e0       	ldi	r25, 0x03	; 3
    184c:	90 93 42 01 	sts	0x0142, r25
  TRX_STATE_REG = state;
    1850:	80 93 42 01 	sts	0x0142, r24
  while (state != TRX_STATUS_REG_s.trxStatus);
    1854:	90 91 41 01 	lds	r25, 0x0141
    1858:	9f 71       	andi	r25, 0x1F	; 31
    185a:	89 17       	cp	r24, r25
    185c:	d9 f7       	brne	.-10     	; 0x1854 <phyTrxSetState+0xa>
}
    185e:	08 95       	ret

00001860 <phySetRxState>:

/*****************************************************************************
*****************************************************************************/
static void phySetRxState(void)
{
  if (phyIb.rx)
    1860:	80 91 14 08 	lds	r24, 0x0814
    1864:	88 23       	and	r24, r24
    1866:	11 f0       	breq	.+4      	; 0x186c <phySetRxState+0xc>
    phyTrxSetState(TRX_CMD_RX_AACK_ON);
    1868:	86 e1       	ldi	r24, 0x16	; 22
    186a:	01 c0       	rjmp	.+2      	; 0x186e <phySetRxState+0xe>
  else
    phyTrxSetState(TRX_CMD_TRX_OFF);
    186c:	88 e0       	ldi	r24, 0x08	; 8
    186e:	0e 94 25 0c 	call	0x184a	; 0x184a <phyTrxSetState>
    1872:	08 95       	ret

00001874 <phyGetRandomNumber>:

#ifdef PHY_ENABLE_RANDOM_NUMBER_GENERATOR
/*****************************************************************************
*****************************************************************************/
static uint16_t phyGetRandomNumber(void)
{
    1874:	0f 93       	push	r16
    1876:	1f 93       	push	r17
    1878:	cf 93       	push	r28
    187a:	df 93       	push	r29
  uint16_t rnd = 0;

  IRQ_MASK_REG = 0x00;
    187c:	10 92 4e 01 	sts	0x014E, r1
  phyTrxSetState(TRX_CMD_RX_ON);
    1880:	86 e0       	ldi	r24, 0x06	; 6
    1882:	0e 94 25 0c 	call	0x184a	; 0x184a <phyTrxSetState>
    1886:	c0 e0       	ldi	r28, 0x00	; 0
    1888:	d0 e0       	ldi	r29, 0x00	; 0
#ifdef PHY_ENABLE_RANDOM_NUMBER_GENERATOR
/*****************************************************************************
*****************************************************************************/
static uint16_t phyGetRandomNumber(void)
{
  uint16_t rnd = 0;
    188a:	00 e0       	ldi	r16, 0x00	; 0
    188c:	10 e0       	ldi	r17, 0x00	; 0
  IRQ_MASK_REG = 0x00;
  phyTrxSetState(TRX_CMD_RX_ON);

  for (uint8_t i = 0; i < 16; i += 2)
  {
    HAL_Delay(RANDOM_NUMBER_UPDATE_INTERVAL);
    188e:	81 e0       	ldi	r24, 0x01	; 1
    1890:	0e 94 cb 02 	call	0x596	; 0x596 <HAL_Delay>
    rnd |= PHY_RSSI_REG_s.rndValue << i;
    1894:	80 91 46 01 	lds	r24, 0x0146
    1898:	82 95       	swap	r24
    189a:	86 95       	lsr	r24
    189c:	83 70       	andi	r24, 0x03	; 3
    189e:	90 e0       	ldi	r25, 0x00	; 0
    18a0:	0c 2e       	mov	r0, r28
    18a2:	02 c0       	rjmp	.+4      	; 0x18a8 <phyGetRandomNumber+0x34>
    18a4:	88 0f       	add	r24, r24
    18a6:	99 1f       	adc	r25, r25
    18a8:	0a 94       	dec	r0
    18aa:	e2 f7       	brpl	.-8      	; 0x18a4 <phyGetRandomNumber+0x30>
    18ac:	08 2b       	or	r16, r24
    18ae:	19 2b       	or	r17, r25
    18b0:	22 96       	adiw	r28, 0x02	; 2
  uint16_t rnd = 0;

  IRQ_MASK_REG = 0x00;
  phyTrxSetState(TRX_CMD_RX_ON);

  for (uint8_t i = 0; i < 16; i += 2)
    18b2:	c0 31       	cpi	r28, 0x10	; 16
    18b4:	d1 05       	cpc	r29, r1
    18b6:	59 f7       	brne	.-42     	; 0x188e <phyGetRandomNumber+0x1a>
  {
    HAL_Delay(RANDOM_NUMBER_UPDATE_INTERVAL);
    rnd |= PHY_RSSI_REG_s.rndValue << i;
  }

  phyTrxSetState(TRX_CMD_TRX_OFF);
    18b8:	88 e0       	ldi	r24, 0x08	; 8
    18ba:	0e 94 25 0c 	call	0x184a	; 0x184a <phyTrxSetState>

  IRQ_STATUS_REG = IRQ_STATUS_CLEAR_VALUE;
    18be:	8f ef       	ldi	r24, 0xFF	; 255
    18c0:	80 93 4f 01 	sts	0x014F, r24
  IRQ_MASK_REG_s.rxEndEn = 1;
    18c4:	80 91 4e 01 	lds	r24, 0x014E
    18c8:	88 60       	ori	r24, 0x08	; 8
    18ca:	80 93 4e 01 	sts	0x014E, r24
  IRQ_MASK_REG_s.txEndEn = 1;
    18ce:	80 91 4e 01 	lds	r24, 0x014E
    18d2:	80 64       	ori	r24, 0x40	; 64
    18d4:	80 93 4e 01 	sts	0x014E, r24

  return rnd;
}
    18d8:	c8 01       	movw	r24, r16
    18da:	df 91       	pop	r29
    18dc:	cf 91       	pop	r28
    18de:	1f 91       	pop	r17
    18e0:	0f 91       	pop	r16
    18e2:	08 95       	ret

000018e4 <PHY_Init>:

/*****************************************************************************
*****************************************************************************/
void PHY_Init(void)
{
  TRXPR_REG_s.trxrst = 1;
    18e4:	e9 e3       	ldi	r30, 0x39	; 57
    18e6:	f1 e0       	ldi	r31, 0x01	; 1
    18e8:	80 81       	ld	r24, Z
    18ea:	81 60       	ori	r24, 0x01	; 1
    18ec:	80 83       	st	Z, r24

  phyTrxSetState(TRX_CMD_TRX_OFF);
    18ee:	88 e0       	ldi	r24, 0x08	; 8
    18f0:	0e 94 25 0c 	call	0x184a	; 0x184a <phyTrxSetState>

  CSMA_SEED_1_REG_s.aackSetPd = 1;
    18f4:	ee e6       	ldi	r30, 0x6E	; 110
    18f6:	f1 e0       	ldi	r31, 0x01	; 1
    18f8:	80 81       	ld	r24, Z
    18fa:	80 62       	ori	r24, 0x20	; 32
    18fc:	80 83       	st	Z, r24
  CSMA_SEED_1_REG_s.aackDisAck = 0;
    18fe:	80 81       	ld	r24, Z
    1900:	8f 7e       	andi	r24, 0xEF	; 239
    1902:	80 83       	st	Z, r24

  IRQ_STATUS_REG = IRQ_STATUS_CLEAR_VALUE;
    1904:	8f ef       	ldi	r24, 0xFF	; 255
    1906:	80 93 4f 01 	sts	0x014F, r24
  IRQ_MASK_REG_s.rxEndEn = 1;
    190a:	ee e4       	ldi	r30, 0x4E	; 78
    190c:	f1 e0       	ldi	r31, 0x01	; 1
    190e:	80 81       	ld	r24, Z
    1910:	88 60       	ori	r24, 0x08	; 8
    1912:	80 83       	st	Z, r24
  IRQ_MASK_REG_s.txEndEn = 1;
    1914:	80 81       	ld	r24, Z
    1916:	80 64       	ori	r24, 0x40	; 64
    1918:	80 83       	st	Z, r24

  TRX_CTRL_2_REG_s.rxSafeMode = 1;
    191a:	ec e4       	ldi	r30, 0x4C	; 76
    191c:	f1 e0       	ldi	r31, 0x01	; 1
    191e:	80 81       	ld	r24, Z
    1920:	80 68       	ori	r24, 0x80	; 128
    1922:	80 83       	st	Z, r24

#ifdef PHY_ENABLE_RANDOM_NUMBER_GENERATOR
  CSMA_SEED_0_REG = (uint8_t)phyGetRandomNumber();
    1924:	0e 94 3a 0c 	call	0x1874	; 0x1874 <phyGetRandomNumber>
    1928:	80 93 6d 01 	sts	0x016D, r24
#else
  CSMA_SEED_0_REG = 0x11;
#endif

  phyIb.request = PHY_REQ_NONE;
    192c:	10 92 0e 08 	sts	0x080E, r1
  phyIb.rx = false;
    1930:	10 92 14 08 	sts	0x0814, r1
  phyState = PHY_STATE_IDLE;
    1934:	81 e0       	ldi	r24, 0x01	; 1
    1936:	80 93 0d 08 	sts	0x080D, r24
}
    193a:	08 95       	ret

0000193c <PHY_SetRxState>:

/*****************************************************************************
*****************************************************************************/
void PHY_SetRxState(bool rx)
{
  phyIb.request |= PHY_REQ_RX;
    193c:	90 91 0e 08 	lds	r25, 0x080E
    1940:	98 60       	ori	r25, 0x08	; 8
    1942:	90 93 0e 08 	sts	0x080E, r25
  phyIb.rx = rx;
    1946:	80 93 14 08 	sts	0x0814, r24
}
    194a:	08 95       	ret

0000194c <PHY_SetChannel>:

/*****************************************************************************
*****************************************************************************/
void PHY_SetChannel(uint8_t channel)
{
  phyIb.request |= PHY_REQ_CHANNEL;
    194c:	90 91 0e 08 	lds	r25, 0x080E
    1950:	91 60       	ori	r25, 0x01	; 1
    1952:	90 93 0e 08 	sts	0x080E, r25
  phyIb.channel = channel;
    1956:	80 93 0f 08 	sts	0x080F, r24
}
    195a:	08 95       	ret

0000195c <PHY_SetPanId>:

/*****************************************************************************
*****************************************************************************/
void PHY_SetPanId(uint16_t panId)
{
  phyIb.request |= PHY_REQ_PANID;
    195c:	20 91 0e 08 	lds	r18, 0x080E
    1960:	22 60       	ori	r18, 0x02	; 2
    1962:	20 93 0e 08 	sts	0x080E, r18
  phyIb.panId = panId;
    1966:	90 93 11 08 	sts	0x0811, r25
    196a:	80 93 10 08 	sts	0x0810, r24
}
    196e:	08 95       	ret

00001970 <PHY_SetShortAddr>:

/*****************************************************************************
*****************************************************************************/
void PHY_SetShortAddr(uint16_t addr)
{
  phyIb.request |= PHY_REQ_ADDR;
    1970:	20 91 0e 08 	lds	r18, 0x080E
    1974:	24 60       	ori	r18, 0x04	; 4
    1976:	20 93 0e 08 	sts	0x080E, r18
  phyIb.addr = addr;
    197a:	90 93 13 08 	sts	0x0813, r25
    197e:	80 93 12 08 	sts	0x0812, r24
}
    1982:	08 95       	ret

00001984 <PHY_Busy>:

/*****************************************************************************
*****************************************************************************/
bool PHY_Busy(void)
{
  return PHY_STATE_IDLE != phyState || PHY_REQ_NONE != phyIb.request;
    1984:	80 91 0d 08 	lds	r24, 0x080D
    1988:	81 30       	cpi	r24, 0x01	; 1
    198a:	49 f4       	brne	.+18     	; 0x199e <PHY_Busy+0x1a>
    198c:	81 e0       	ldi	r24, 0x01	; 1
    198e:	90 e0       	ldi	r25, 0x00	; 0
    1990:	20 91 0e 08 	lds	r18, 0x080E
    1994:	22 23       	and	r18, r18
    1996:	29 f4       	brne	.+10     	; 0x19a2 <PHY_Busy+0x1e>
    1998:	80 e0       	ldi	r24, 0x00	; 0
    199a:	90 e0       	ldi	r25, 0x00	; 0
    199c:	08 95       	ret
    199e:	81 e0       	ldi	r24, 0x01	; 1
    19a0:	90 e0       	ldi	r25, 0x00	; 0
}
    19a2:	08 95       	ret

000019a4 <PHY_Sleep>:

/*****************************************************************************
*****************************************************************************/
void PHY_Sleep(void)
{
  phyTrxSetState(TRX_CMD_TRX_OFF);
    19a4:	88 e0       	ldi	r24, 0x08	; 8
    19a6:	0e 94 25 0c 	call	0x184a	; 0x184a <phyTrxSetState>
  TRXPR_REG_s.slptr = 1;
    19aa:	e9 e3       	ldi	r30, 0x39	; 57
    19ac:	f1 e0       	ldi	r31, 0x01	; 1
    19ae:	80 81       	ld	r24, Z
    19b0:	82 60       	ori	r24, 0x02	; 2
    19b2:	80 83       	st	Z, r24
  phyState = PHY_STATE_SLEEP;
    19b4:	82 e0       	ldi	r24, 0x02	; 2
    19b6:	80 93 0d 08 	sts	0x080D, r24
}
    19ba:	08 95       	ret

000019bc <PHY_Wakeup>:

/*****************************************************************************
*****************************************************************************/
void PHY_Wakeup(void)
{
  TRXPR_REG_s.slptr = 0;
    19bc:	e9 e3       	ldi	r30, 0x39	; 57
    19be:	f1 e0       	ldi	r31, 0x01	; 1
    19c0:	80 81       	ld	r24, Z
    19c2:	8d 7f       	andi	r24, 0xFD	; 253
    19c4:	80 83       	st	Z, r24
  phySetRxState();
    19c6:	0e 94 30 0c 	call	0x1860	; 0x1860 <phySetRxState>
  phyState = PHY_STATE_IDLE;
    19ca:	81 e0       	ldi	r24, 0x01	; 1
    19cc:	80 93 0d 08 	sts	0x080D, r24
}
    19d0:	08 95       	ret

000019d2 <PHY_DataReq>:

/*****************************************************************************
*****************************************************************************/
void PHY_DataReq(uint8_t *data, uint8_t size)
{
    19d2:	1f 93       	push	r17
    19d4:	cf 93       	push	r28
    19d6:	df 93       	push	r29
    19d8:	00 d0       	rcall	.+0      	; 0x19da <PHY_DataReq+0x8>
    19da:	cd b7       	in	r28, 0x3d	; 61
    19dc:	de b7       	in	r29, 0x3e	; 62
    19de:	18 2f       	mov	r17, r24
  phyTrxSetState(TRX_CMD_TX_ARET_ON);
    19e0:	89 e1       	ldi	r24, 0x19	; 25
    19e2:	69 83       	std	Y+1, r22	; 0x01
    19e4:	9a 83       	std	Y+2, r25	; 0x02
    19e6:	0e 94 25 0c 	call	0x184a	; 0x184a <phyTrxSetState>

  TRX_FRAME_BUFFER(0) = size + 2/*crc*/;
    19ea:	69 81       	ldd	r22, Y+1	; 0x01
    19ec:	86 2f       	mov	r24, r22
    19ee:	8e 5f       	subi	r24, 0xFE	; 254
    19f0:	80 93 80 01 	sts	0x0180, r24
  for (uint8_t i = 0; i < size; i++)
    19f4:	e1 2f       	mov	r30, r17
    19f6:	9a 81       	ldd	r25, Y+2	; 0x02
    19f8:	f9 2f       	mov	r31, r25
    19fa:	a1 e8       	ldi	r26, 0x81	; 129
    19fc:	b1 e0       	ldi	r27, 0x01	; 1
    19fe:	02 c0       	rjmp	.+4      	; 0x1a04 <PHY_DataReq+0x32>
    TRX_FRAME_BUFFER(i+1) = data[i];
    1a00:	81 91       	ld	r24, Z+
    1a02:	8d 93       	st	X+, r24
void PHY_DataReq(uint8_t *data, uint8_t size)
{
  phyTrxSetState(TRX_CMD_TX_ARET_ON);

  TRX_FRAME_BUFFER(0) = size + 2/*crc*/;
  for (uint8_t i = 0; i < size; i++)
    1a04:	8e 2f       	mov	r24, r30
    1a06:	81 1b       	sub	r24, r17
    1a08:	86 17       	cp	r24, r22
    1a0a:	d0 f3       	brcs	.-12     	; 0x1a00 <PHY_DataReq+0x2e>
    TRX_FRAME_BUFFER(i+1) = data[i];

  TRX_STATE_REG = TRX_CMD_TX_START;
    1a0c:	82 e0       	ldi	r24, 0x02	; 2
    1a0e:	80 93 42 01 	sts	0x0142, r24

  phyState = PHY_STATE_TX_WAIT_END;
    1a12:	83 e0       	ldi	r24, 0x03	; 3
    1a14:	80 93 0d 08 	sts	0x080D, r24
}
    1a18:	0f 90       	pop	r0
    1a1a:	0f 90       	pop	r0
    1a1c:	df 91       	pop	r29
    1a1e:	cf 91       	pop	r28
    1a20:	1f 91       	pop	r17
    1a22:	08 95       	ret

00001a24 <PHY_RandomReq>:
#ifdef PHY_ENABLE_RANDOM_NUMBER_GENERATOR
/*****************************************************************************
*****************************************************************************/
void PHY_RandomReq(void)
{
  phyIb.request |= PHY_REQ_RANDOM;
    1a24:	80 91 0e 08 	lds	r24, 0x080E
    1a28:	80 61       	ori	r24, 0x10	; 16
    1a2a:	80 93 0e 08 	sts	0x080E, r24
}
    1a2e:	08 95       	ret

00001a30 <__vector_63>:
#endif

/*****************************************************************************
*****************************************************************************/
ISR(TRX24_TX_END_vect)
{
    1a30:	1f 92       	push	r1
    1a32:	0f 92       	push	r0
    1a34:	0f b6       	in	r0, 0x3f	; 63
    1a36:	0f 92       	push	r0
    1a38:	0b b6       	in	r0, 0x3b	; 59
    1a3a:	0f 92       	push	r0
    1a3c:	11 24       	eor	r1, r1
    1a3e:	2f 93       	push	r18
    1a40:	3f 93       	push	r19
    1a42:	4f 93       	push	r20
    1a44:	5f 93       	push	r21
    1a46:	6f 93       	push	r22
    1a48:	7f 93       	push	r23
    1a4a:	8f 93       	push	r24
    1a4c:	9f 93       	push	r25
    1a4e:	af 93       	push	r26
    1a50:	bf 93       	push	r27
    1a52:	ef 93       	push	r30
    1a54:	ff 93       	push	r31
  if (TRX_STATUS_TX_ARET_ON == TRX_STATUS_REG_s.trxStatus)
    1a56:	80 91 41 01 	lds	r24, 0x0141
    1a5a:	8f 71       	andi	r24, 0x1F	; 31
    1a5c:	89 31       	cpi	r24, 0x19	; 25
    1a5e:	69 f4       	brne	.+26     	; 0x1a7a <__vector_63+0x4a>
  {
    //TRX_STATE_REG = TRX_CMD_PLL_ON; // Don't wait for this to complete
    phyTrxSetState(TRX_CMD_PLL_ON);
    1a60:	89 e0       	ldi	r24, 0x09	; 9
    1a62:	0e 94 25 0c 	call	0x184a	; 0x184a <phyTrxSetState>

    phyState = PHY_STATE_TX_CONFIRM;
    1a66:	84 e0       	ldi	r24, 0x04	; 4
    1a68:	80 93 0d 08 	sts	0x080D, r24
    phyTxStatus = TRX_STATE_REG_s.tracStatus;
    1a6c:	80 91 42 01 	lds	r24, 0x0142
    1a70:	82 95       	swap	r24
    1a72:	86 95       	lsr	r24
    1a74:	87 70       	andi	r24, 0x07	; 7
    1a76:	80 93 0c 08 	sts	0x080C, r24
  }
  else
  {
    // Auto ACK transmission completed
  }
}
    1a7a:	ff 91       	pop	r31
    1a7c:	ef 91       	pop	r30
    1a7e:	bf 91       	pop	r27
    1a80:	af 91       	pop	r26
    1a82:	9f 91       	pop	r25
    1a84:	8f 91       	pop	r24
    1a86:	7f 91       	pop	r23
    1a88:	6f 91       	pop	r22
    1a8a:	5f 91       	pop	r21
    1a8c:	4f 91       	pop	r20
    1a8e:	3f 91       	pop	r19
    1a90:	2f 91       	pop	r18
    1a92:	0f 90       	pop	r0
    1a94:	0b be       	out	0x3b, r0	; 59
    1a96:	0f 90       	pop	r0
    1a98:	0f be       	out	0x3f, r0	; 63
    1a9a:	0f 90       	pop	r0
    1a9c:	1f 90       	pop	r1
    1a9e:	18 95       	reti

00001aa0 <__vector_60>:
#endif

/*****************************************************************************
*****************************************************************************/
ISR(TRX24_RX_END_vect)
{
    1aa0:	1f 92       	push	r1
    1aa2:	0f 92       	push	r0
    1aa4:	0f b6       	in	r0, 0x3f	; 63
    1aa6:	0f 92       	push	r0
    1aa8:	11 24       	eor	r1, r1
    1aaa:	8f 93       	push	r24
  TRX_STATE_REG = TRX_CMD_PLL_ON; // Don't wait for this to complete
    1aac:	89 e0       	ldi	r24, 0x09	; 9
    1aae:	80 93 42 01 	sts	0x0142, r24
  phyRxRssi = (int8_t)PHY_ED_LEVEL_REG;
    1ab2:	80 91 47 01 	lds	r24, 0x0147
    1ab6:	80 93 0b 08 	sts	0x080B, r24
  phyRxSize = TST_RX_LENGTH_REG;
    1aba:	80 91 7b 01 	lds	r24, 0x017B
    1abe:	80 93 0a 08 	sts	0x080A, r24
  phyState = PHY_STATE_RX_IND;
    1ac2:	85 e0       	ldi	r24, 0x05	; 5
    1ac4:	80 93 0d 08 	sts	0x080D, r24
}
    1ac8:	8f 91       	pop	r24
    1aca:	0f 90       	pop	r0
    1acc:	0f be       	out	0x3f, r0	; 63
    1ace:	0f 90       	pop	r0
    1ad0:	1f 90       	pop	r1
    1ad2:	18 95       	reti

00001ad4 <PHY_TaskHandler>:
}

/*****************************************************************************
*****************************************************************************/
void PHY_TaskHandler(void)
{
    1ad4:	1f 93       	push	r17
    1ad6:	cf 93       	push	r28
    1ad8:	df 93       	push	r29
    1ada:	00 d0       	rcall	.+0      	; 0x1adc <PHY_TaskHandler+0x8>
    1adc:	00 d0       	rcall	.+0      	; 0x1ade <PHY_TaskHandler+0xa>
    1ade:	0f 92       	push	r0
    1ae0:	cd b7       	in	r28, 0x3d	; 61
    1ae2:	de b7       	in	r29, 0x3e	; 62
  switch (phyState)
    1ae4:	80 91 0d 08 	lds	r24, 0x080D
    1ae8:	84 30       	cpi	r24, 0x04	; 4
    1aea:	f1 f1       	breq	.+124    	; 0x1b68 <PHY_TaskHandler+0x94>
    1aec:	85 30       	cpi	r24, 0x05	; 5
    1aee:	09 f4       	brne	.+2      	; 0x1af2 <PHY_TaskHandler+0x1e>
    1af0:	4f c0       	rjmp	.+158    	; 0x1b90 <PHY_TaskHandler+0xbc>
    1af2:	81 30       	cpi	r24, 0x01	; 1
    1af4:	09 f0       	breq	.+2      	; 0x1af8 <PHY_TaskHandler+0x24>
    1af6:	76 c0       	rjmp	.+236    	; 0x1be4 <PHY_TaskHandler+0x110>
  {
    case PHY_STATE_IDLE:
    {
      if (phyIb.request)
    1af8:	10 91 0e 08 	lds	r17, 0x080E
    1afc:	11 23       	and	r17, r17
    1afe:	09 f4       	brne	.+2      	; 0x1b02 <PHY_TaskHandler+0x2e>
    1b00:	71 c0       	rjmp	.+226    	; 0x1be4 <PHY_TaskHandler+0x110>

/*****************************************************************************
*****************************************************************************/
static void phyHandleSetRequests(void)
{
  phyTrxSetState(TRX_CMD_TRX_OFF);
    1b02:	88 e0       	ldi	r24, 0x08	; 8
    1b04:	0e 94 25 0c 	call	0x184a	; 0x184a <phyTrxSetState>

  if (phyIb.request & PHY_REQ_CHANNEL)
    1b08:	10 ff       	sbrs	r17, 0
    1b0a:	09 c0       	rjmp	.+18     	; 0x1b1e <PHY_TaskHandler+0x4a>
  {
    PHY_CC_CCA_REG_s.channel = phyIb.channel;
    1b0c:	90 91 0f 08 	lds	r25, 0x080F
    1b10:	9f 71       	andi	r25, 0x1F	; 31
    1b12:	80 91 48 01 	lds	r24, 0x0148
    1b16:	80 7e       	andi	r24, 0xE0	; 224
    1b18:	89 2b       	or	r24, r25
    1b1a:	80 93 48 01 	sts	0x0148, r24
  }

  if (phyIb.request & PHY_REQ_PANID)
    1b1e:	80 91 0e 08 	lds	r24, 0x080E
    1b22:	81 ff       	sbrs	r24, 1
    1b24:	08 c0       	rjmp	.+16     	; 0x1b36 <PHY_TaskHandler+0x62>
  {
    uint8_t *d = (uint8_t *)&phyIb.panId;
    PAN_ID_0_REG = d[0];
    1b26:	80 91 10 08 	lds	r24, 0x0810
    1b2a:	80 93 62 01 	sts	0x0162, r24
    PAN_ID_1_REG = d[1];
    1b2e:	80 91 11 08 	lds	r24, 0x0811
    1b32:	80 93 63 01 	sts	0x0163, r24
  }

  if (phyIb.request & PHY_REQ_ADDR)
    1b36:	80 91 0e 08 	lds	r24, 0x080E
    1b3a:	82 ff       	sbrs	r24, 2
    1b3c:	08 c0       	rjmp	.+16     	; 0x1b4e <PHY_TaskHandler+0x7a>
  {
    uint8_t *d = (uint8_t *)&phyIb.addr;
    SHORT_ADDR_0_REG = d[0];
    1b3e:	80 91 12 08 	lds	r24, 0x0812
    1b42:	80 93 60 01 	sts	0x0160, r24
    SHORT_ADDR_1_REG = d[1];
    1b46:	80 91 13 08 	lds	r24, 0x0813
    1b4a:	80 93 61 01 	sts	0x0161, r24
  }

#ifdef PHY_ENABLE_RANDOM_NUMBER_GENERATOR
  if (phyIb.request & PHY_REQ_RANDOM)
    1b4e:	80 91 0e 08 	lds	r24, 0x080E
    1b52:	84 ff       	sbrs	r24, 4
    1b54:	04 c0       	rjmp	.+8      	; 0x1b5e <PHY_TaskHandler+0x8a>
  {
    uint16_t rnd = phyGetRandomNumber();
    1b56:	0e 94 3a 0c 	call	0x1874	; 0x1874 <phyGetRandomNumber>
    PHY_RandomConf(rnd);
    1b5a:	0e 94 dc 0f 	call	0x1fb8	; 0x1fb8 <PHY_RandomConf>

#ifdef PHY_ENABLE_ENERGY_DETECTION
  if (!(phyIb.request & PHY_REQ_ED))
    phySetRxState();
#else
  phySetRxState();
    1b5e:	0e 94 30 0c 	call	0x1860	; 0x1860 <phySetRxState>
#endif

  phyIb.request = PHY_REQ_NONE;
    1b62:	10 92 0e 08 	sts	0x080E, r1
    1b66:	3e c0       	rjmp	.+124    	; 0x1be4 <PHY_TaskHandler+0x110>
        phyHandleSetRequests();
    } break;

    case PHY_STATE_TX_CONFIRM:
    {
      PHY_DataConf(phyTxStatus);
    1b68:	80 91 0c 08 	lds	r24, 0x080C
    1b6c:	0e 94 9e 0b 	call	0x173c	; 0x173c <PHY_DataConf>

      while (TRX_CMD_PLL_ON != TRX_STATUS_REG_s.trxStatus);
    1b70:	80 91 41 01 	lds	r24, 0x0141
    1b74:	8f 71       	andi	r24, 0x1F	; 31
    1b76:	89 30       	cpi	r24, 0x09	; 9
    1b78:	d9 f7       	brne	.-10     	; 0x1b70 <PHY_TaskHandler+0x9c>
    1b7a:	2f c0       	rjmp	.+94     	; 0x1bda <PHY_TaskHandler+0x106>
    case PHY_STATE_RX_IND:
    {
      PHY_DataInd_t ind;

      for (uint8_t i = 0; i < phyRxSize + 1/*lqi*/; i++)
        phyRxBuffer[i] = TRX_FRAME_BUFFER(i);
    1b7c:	fc 01       	movw	r30, r24
    1b7e:	e0 58       	subi	r30, 0x80	; 128
    1b80:	fe 4f       	sbci	r31, 0xFE	; 254
    1b82:	20 81       	ld	r18, Z
    1b84:	8b 5e       	subi	r24, 0xEB	; 235
    1b86:	97 4f       	sbci	r25, 0xF7	; 247
    1b88:	fc 01       	movw	r30, r24
    1b8a:	20 83       	st	Z, r18

    case PHY_STATE_RX_IND:
    {
      PHY_DataInd_t ind;

      for (uint8_t i = 0; i < phyRxSize + 1/*lqi*/; i++)
    1b8c:	4f 5f       	subi	r20, 0xFF	; 255
    1b8e:	01 c0       	rjmp	.+2      	; 0x1b92 <PHY_TaskHandler+0xbe>

/*****************************************************************************
*****************************************************************************/
void PHY_TaskHandler(void)
{
  switch (phyState)
    1b90:	40 e0       	ldi	r20, 0x00	; 0

    case PHY_STATE_RX_IND:
    {
      PHY_DataInd_t ind;

      for (uint8_t i = 0; i < phyRxSize + 1/*lqi*/; i++)
    1b92:	20 91 0a 08 	lds	r18, 0x080A
    1b96:	84 2f       	mov	r24, r20
    1b98:	90 e0       	ldi	r25, 0x00	; 0
    1b9a:	30 e0       	ldi	r19, 0x00	; 0
    1b9c:	28 17       	cp	r18, r24
    1b9e:	39 07       	cpc	r19, r25
    1ba0:	6c f7       	brge	.-38     	; 0x1b7c <PHY_TaskHandler+0xa8>
        phyRxBuffer[i] = TRX_FRAME_BUFFER(i);

      ind.data = phyRxBuffer;
    1ba2:	85 e1       	ldi	r24, 0x15	; 21
    1ba4:	98 e0       	ldi	r25, 0x08	; 8
    1ba6:	9a 83       	std	Y+2, r25	; 0x02
    1ba8:	89 83       	std	Y+1, r24	; 0x01
      ind.size = phyRxSize - 2/*crc*/;
    1baa:	80 91 0a 08 	lds	r24, 0x080A
    1bae:	82 50       	subi	r24, 0x02	; 2
    1bb0:	8b 83       	std	Y+3, r24	; 0x03
      ind.lqi  = phyRxBuffer[phyRxSize];
    1bb2:	e0 91 0a 08 	lds	r30, 0x080A
    1bb6:	f0 e0       	ldi	r31, 0x00	; 0
    1bb8:	eb 5e       	subi	r30, 0xEB	; 235
    1bba:	f7 4f       	sbci	r31, 0xF7	; 247
    1bbc:	80 81       	ld	r24, Z
    1bbe:	8c 83       	std	Y+4, r24	; 0x04
      ind.rssi = phyRxRssi + PHY_RSSI_BASE_VAL;
    1bc0:	80 91 0b 08 	lds	r24, 0x080B
    1bc4:	8a 55       	subi	r24, 0x5A	; 90
    1bc6:	8d 83       	std	Y+5, r24	; 0x05
      PHY_DataInd(&ind);
    1bc8:	ce 01       	movw	r24, r28
    1bca:	01 96       	adiw	r24, 0x01	; 1
    1bcc:	0e 94 90 08 	call	0x1120	; 0x1120 <PHY_DataInd>

      while (TRX_CMD_PLL_ON != TRX_STATUS_REG_s.trxStatus);
    1bd0:	80 91 41 01 	lds	r24, 0x0141
    1bd4:	8f 71       	andi	r24, 0x1F	; 31
    1bd6:	89 30       	cpi	r24, 0x09	; 9
    1bd8:	d9 f7       	brne	.-10     	; 0x1bd0 <PHY_TaskHandler+0xfc>
      phyState = PHY_STATE_IDLE;
    1bda:	81 e0       	ldi	r24, 0x01	; 1
    1bdc:	80 93 0d 08 	sts	0x080D, r24
      phySetRxState();
    1be0:	0e 94 30 0c 	call	0x1860	; 0x1860 <phySetRxState>
#endif

    default:
      break;
  }
}
    1be4:	0f 90       	pop	r0
    1be6:	0f 90       	pop	r0
    1be8:	0f 90       	pop	r0
    1bea:	0f 90       	pop	r0
    1bec:	0f 90       	pop	r0
    1bee:	df 91       	pop	r29
    1bf0:	cf 91       	pop	r28
    1bf2:	1f 91       	pop	r17
    1bf4:	08 95       	ret

00001bf6 <SYS_Init>:

/*****************************************************************************
*****************************************************************************/
void SYS_Init(void)
{
  HAL_Init();
    1bf6:	0e 94 be 02 	call	0x57c	; 0x57c <HAL_Init>
  SYS_TimerInit();
    1bfa:	0e 94 62 0e 	call	0x1cc4	; 0x1cc4 <SYS_TimerInit>
  PHY_Init();
    1bfe:	0e 94 72 0c 	call	0x18e4	; 0x18e4 <PHY_Init>
  NWK_Init();
    1c02:	0e 94 64 05 	call	0xac8	; 0xac8 <NWK_Init>
}
    1c06:	08 95       	ret

00001c08 <SYS_TaskHandler>:

/*****************************************************************************
*****************************************************************************/
void SYS_TaskHandler(void)
{
  PHY_TaskHandler();
    1c08:	0e 94 6a 0d 	call	0x1ad4	; 0x1ad4 <PHY_TaskHandler>
  NWK_TaskHandler();
    1c0c:	0e 94 af 05 	call	0xb5e	; 0xb5e <NWK_TaskHandler>
  SYS_TimerTaskHandler();
    1c10:	0e 94 be 0e 	call	0x1d7c	; 0x1d7c <SYS_TimerTaskHandler>
}
    1c14:	08 95       	ret

00001c16 <placeTimer>:
}

/*****************************************************************************
*****************************************************************************/
static void placeTimer(SYS_Timer_t *timer)
{
    1c16:	0f 93       	push	r16
    1c18:	1f 93       	push	r17
    1c1a:	cf 93       	push	r28
    1c1c:	df 93       	push	r29
    1c1e:	fc 01       	movw	r30, r24
  if (timers)
    1c20:	00 91 95 08 	lds	r16, 0x0895
    1c24:	10 91 96 08 	lds	r17, 0x0896
    1c28:	36 81       	ldd	r19, Z+6	; 0x06
    1c2a:	27 81       	ldd	r18, Z+7	; 0x07
    1c2c:	90 85       	ldd	r25, Z+8	; 0x08
    1c2e:	81 85       	ldd	r24, Z+9	; 0x09
    1c30:	01 15       	cp	r16, r1
    1c32:	11 05       	cpc	r17, r1
    1c34:	c1 f1       	breq	.+112    	; 0x1ca6 <placeTimer+0x90>
  {
    SYS_Timer_t *prev = NULL;
    uint32_t timeout = timer->interval;
    1c36:	43 2f       	mov	r20, r19
    1c38:	52 2f       	mov	r21, r18
    1c3a:	69 2f       	mov	r22, r25
    1c3c:	78 2f       	mov	r23, r24
    1c3e:	e8 01       	movw	r28, r16
*****************************************************************************/
static void placeTimer(SYS_Timer_t *timer)
{
  if (timers)
  {
    SYS_Timer_t *prev = NULL;
    1c40:	20 e0       	ldi	r18, 0x00	; 0
    1c42:	30 e0       	ldi	r19, 0x00	; 0
    1c44:	01 c0       	rjmp	.+2      	; 0x1c48 <placeTimer+0x32>
    uint32_t timeout = timer->interval;

    for (SYS_Timer_t *t = timers; t; t = t->next)
    1c46:	ec 01       	movw	r28, r24
    {
      if (timeout < t->timeout)
    1c48:	8a 81       	ldd	r24, Y+2	; 0x02
    1c4a:	9b 81       	ldd	r25, Y+3	; 0x03
    1c4c:	ac 81       	ldd	r26, Y+4	; 0x04
    1c4e:	bd 81       	ldd	r27, Y+5	; 0x05
    1c50:	48 17       	cp	r20, r24
    1c52:	59 07       	cpc	r21, r25
    1c54:	6a 07       	cpc	r22, r26
    1c56:	7b 07       	cpc	r23, r27
    1c58:	48 f4       	brcc	.+18     	; 0x1c6c <placeTimer+0x56>
      {
         t->timeout -= timeout;
    1c5a:	84 1b       	sub	r24, r20
    1c5c:	95 0b       	sbc	r25, r21
    1c5e:	a6 0b       	sbc	r26, r22
    1c60:	b7 0b       	sbc	r27, r23
    1c62:	8a 83       	std	Y+2, r24	; 0x02
    1c64:	9b 83       	std	Y+3, r25	; 0x03
    1c66:	ac 83       	std	Y+4, r26	; 0x04
    1c68:	bd 83       	std	Y+5, r27	; 0x05
         break;
    1c6a:	09 c0       	rjmp	.+18     	; 0x1c7e <placeTimer+0x68>
      }
      else
        timeout -= t->timeout;
    1c6c:	48 1b       	sub	r20, r24
    1c6e:	59 0b       	sbc	r21, r25
    1c70:	6a 0b       	sbc	r22, r26
    1c72:	7b 0b       	sbc	r23, r27
  if (timers)
  {
    SYS_Timer_t *prev = NULL;
    uint32_t timeout = timer->interval;

    for (SYS_Timer_t *t = timers; t; t = t->next)
    1c74:	88 81       	ld	r24, Y
    1c76:	99 81       	ldd	r25, Y+1	; 0x01
    1c78:	9e 01       	movw	r18, r28
    1c7a:	00 97       	sbiw	r24, 0x00	; 0
    1c7c:	21 f7       	brne	.-56     	; 0x1c46 <placeTimer+0x30>
        timeout -= t->timeout;

      prev = t;
    }

    timer->timeout = timeout;
    1c7e:	42 83       	std	Z+2, r20	; 0x02
    1c80:	53 83       	std	Z+3, r21	; 0x03
    1c82:	64 83       	std	Z+4, r22	; 0x04
    1c84:	75 83       	std	Z+5, r23	; 0x05

    if (prev)
    1c86:	21 15       	cp	r18, r1
    1c88:	31 05       	cpc	r19, r1
    1c8a:	51 f0       	breq	.+20     	; 0x1ca0 <placeTimer+0x8a>
    {
      timer->next = prev->next;
    1c8c:	d9 01       	movw	r26, r18
    1c8e:	8d 91       	ld	r24, X+
    1c90:	9c 91       	ld	r25, X
    1c92:	11 97       	sbiw	r26, 0x01	; 1
    1c94:	91 83       	std	Z+1, r25	; 0x01
    1c96:	80 83       	st	Z, r24
      prev->next = timer;
    1c98:	11 96       	adiw	r26, 0x01	; 1
    1c9a:	fc 93       	st	X, r31
    1c9c:	ee 93       	st	-X, r30
    1c9e:	0d c0       	rjmp	.+26     	; 0x1cba <placeTimer+0xa4>
    }
    else
    {
      timer->next = timers;
    1ca0:	11 83       	std	Z+1, r17	; 0x01
    1ca2:	00 83       	st	Z, r16
    1ca4:	06 c0       	rjmp	.+12     	; 0x1cb2 <placeTimer+0x9c>
      timers = timer;
    }
  }
  else
  {
    timer->next = NULL;
    1ca6:	11 82       	std	Z+1, r1	; 0x01
    1ca8:	10 82       	st	Z, r1
    timer->timeout = timer->interval;
    1caa:	32 83       	std	Z+2, r19	; 0x02
    1cac:	23 83       	std	Z+3, r18	; 0x03
    1cae:	94 83       	std	Z+4, r25	; 0x04
    1cb0:	85 83       	std	Z+5, r24	; 0x05
    timers = timer;
    1cb2:	f0 93 96 08 	sts	0x0896, r31
    1cb6:	e0 93 95 08 	sts	0x0895, r30
  }
}
    1cba:	df 91       	pop	r29
    1cbc:	cf 91       	pop	r28
    1cbe:	1f 91       	pop	r17
    1cc0:	0f 91       	pop	r16
    1cc2:	08 95       	ret

00001cc4 <SYS_TimerInit>:

/*****************************************************************************
*****************************************************************************/
void SYS_TimerInit(void)
{
  timers = NULL;
    1cc4:	10 92 96 08 	sts	0x0896, r1
    1cc8:	10 92 95 08 	sts	0x0895, r1
}
    1ccc:	08 95       	ret

00001cce <SYS_TimerStop>:
}

/*****************************************************************************
*****************************************************************************/
void SYS_TimerStop(SYS_Timer_t *timer)
{
    1cce:	cf 93       	push	r28
    1cd0:	df 93       	push	r29
    1cd2:	ec 01       	movw	r28, r24
  SYS_Timer_t *prev = NULL;

  for (SYS_Timer_t *t = timers; t; t = t->next)
    1cd4:	e0 91 95 08 	lds	r30, 0x0895
    1cd8:	f0 91 96 08 	lds	r31, 0x0896

/*****************************************************************************
*****************************************************************************/
void SYS_TimerStop(SYS_Timer_t *timer)
{
  SYS_Timer_t *prev = NULL;
    1cdc:	a0 e0       	ldi	r26, 0x00	; 0
    1cde:	b0 e0       	ldi	r27, 0x00	; 0

  for (SYS_Timer_t *t = timers; t; t = t->next)
    1ce0:	2a c0       	rjmp	.+84     	; 0x1d36 <SYS_TimerStop+0x68>
  {
    if (t == timer)
    1ce2:	ec 17       	cp	r30, r28
    1ce4:	fd 07       	cpc	r31, r29
    1ce6:	11 f5       	brne	.+68     	; 0x1d2c <SYS_TimerStop+0x5e>
    1ce8:	80 81       	ld	r24, Z
    1cea:	91 81       	ldd	r25, Z+1	; 0x01
    {
      if (prev)
    1cec:	10 97       	sbiw	r26, 0x00	; 0
    1cee:	21 f0       	breq	.+8      	; 0x1cf8 <SYS_TimerStop+0x2a>
        prev->next = t->next;
    1cf0:	11 96       	adiw	r26, 0x01	; 1
    1cf2:	9c 93       	st	X, r25
    1cf4:	8e 93       	st	-X, r24
    1cf6:	04 c0       	rjmp	.+8      	; 0x1d00 <SYS_TimerStop+0x32>
      else
        timers = t->next;
    1cf8:	90 93 96 08 	sts	0x0896, r25
    1cfc:	80 93 95 08 	sts	0x0895, r24

      if (t->next)
    1d00:	01 90       	ld	r0, Z+
    1d02:	f0 81       	ld	r31, Z
    1d04:	e0 2d       	mov	r30, r0
    1d06:	30 97       	sbiw	r30, 0x00	; 0
    1d08:	c1 f0       	breq	.+48     	; 0x1d3a <SYS_TimerStop+0x6c>
        t->next->timeout += timer->timeout;
    1d0a:	82 81       	ldd	r24, Z+2	; 0x02
    1d0c:	93 81       	ldd	r25, Z+3	; 0x03
    1d0e:	a4 81       	ldd	r26, Z+4	; 0x04
    1d10:	b5 81       	ldd	r27, Z+5	; 0x05
    1d12:	4a 81       	ldd	r20, Y+2	; 0x02
    1d14:	5b 81       	ldd	r21, Y+3	; 0x03
    1d16:	6c 81       	ldd	r22, Y+4	; 0x04
    1d18:	7d 81       	ldd	r23, Y+5	; 0x05
    1d1a:	84 0f       	add	r24, r20
    1d1c:	95 1f       	adc	r25, r21
    1d1e:	a6 1f       	adc	r26, r22
    1d20:	b7 1f       	adc	r27, r23
    1d22:	82 83       	std	Z+2, r24	; 0x02
    1d24:	93 83       	std	Z+3, r25	; 0x03
    1d26:	a4 83       	std	Z+4, r26	; 0x04
    1d28:	b5 83       	std	Z+5, r27	; 0x05
    1d2a:	07 c0       	rjmp	.+14     	; 0x1d3a <SYS_TimerStop+0x6c>
*****************************************************************************/
void SYS_TimerStop(SYS_Timer_t *timer)
{
  SYS_Timer_t *prev = NULL;

  for (SYS_Timer_t *t = timers; t; t = t->next)
    1d2c:	90 81       	ld	r25, Z
    1d2e:	81 81       	ldd	r24, Z+1	; 0x01
    1d30:	df 01       	movw	r26, r30
    1d32:	e9 2f       	mov	r30, r25
    1d34:	f8 2f       	mov	r31, r24
    1d36:	30 97       	sbiw	r30, 0x00	; 0
    1d38:	a1 f6       	brne	.-88     	; 0x1ce2 <SYS_TimerStop+0x14>

      break;
    }
    prev = t;
  }
}
    1d3a:	df 91       	pop	r29
    1d3c:	cf 91       	pop	r28
    1d3e:	08 95       	ret

00001d40 <SYS_TimerStarted>:

/*****************************************************************************
*****************************************************************************/
bool SYS_TimerStarted(SYS_Timer_t *timer)
{
  for (SYS_Timer_t *t = timers; t; t = t->next)
    1d40:	e0 91 95 08 	lds	r30, 0x0895
    1d44:	f0 91 96 08 	lds	r31, 0x0896
    1d48:	06 c0       	rjmp	.+12     	; 0x1d56 <SYS_TimerStarted+0x16>
    if (t == timer)
    1d4a:	e8 17       	cp	r30, r24
    1d4c:	f9 07       	cpc	r31, r25
    1d4e:	39 f0       	breq	.+14     	; 0x1d5e <SYS_TimerStarted+0x1e>

/*****************************************************************************
*****************************************************************************/
bool SYS_TimerStarted(SYS_Timer_t *timer)
{
  for (SYS_Timer_t *t = timers; t; t = t->next)
    1d50:	01 90       	ld	r0, Z+
    1d52:	f0 81       	ld	r31, Z
    1d54:	e0 2d       	mov	r30, r0
    1d56:	30 97       	sbiw	r30, 0x00	; 0
    1d58:	c1 f7       	brne	.-16     	; 0x1d4a <SYS_TimerStarted+0xa>
    if (t == timer)
      return true;
  return false;
    1d5a:	80 e0       	ldi	r24, 0x00	; 0
    1d5c:	08 95       	ret
*****************************************************************************/
bool SYS_TimerStarted(SYS_Timer_t *timer)
{
  for (SYS_Timer_t *t = timers; t; t = t->next)
    if (t == timer)
      return true;
    1d5e:	81 e0       	ldi	r24, 0x01	; 1
  return false;
}
    1d60:	08 95       	ret

00001d62 <SYS_TimerStart>:
}

/*****************************************************************************
*****************************************************************************/
void SYS_TimerStart(SYS_Timer_t *timer)
{
    1d62:	cf 93       	push	r28
    1d64:	df 93       	push	r29
    1d66:	ec 01       	movw	r28, r24
  if (!SYS_TimerStarted(timer))
    1d68:	0e 94 a0 0e 	call	0x1d40	; 0x1d40 <SYS_TimerStarted>
    1d6c:	88 23       	and	r24, r24
    1d6e:	19 f4       	brne	.+6      	; 0x1d76 <SYS_TimerStart+0x14>
    placeTimer(timer);
    1d70:	ce 01       	movw	r24, r28
    1d72:	0e 94 0b 0e 	call	0x1c16	; 0x1c16 <placeTimer>
}
    1d76:	df 91       	pop	r29
    1d78:	cf 91       	pop	r28
    1d7a:	08 95       	ret

00001d7c <SYS_TimerTaskHandler>:
}

/*****************************************************************************
*****************************************************************************/
void SYS_TimerTaskHandler(void)
{
    1d7c:	cf 92       	push	r12
    1d7e:	df 92       	push	r13
    1d80:	ef 92       	push	r14
    1d82:	ff 92       	push	r15
    1d84:	cf 93       	push	r28
    1d86:	df 93       	push	r29
  uint32_t elapsed;
  uint8_t cnt;

  if (0 == halTimerIrqCount)
    1d88:	80 91 f9 08 	lds	r24, 0x08F9
    1d8c:	88 23       	and	r24, r24
    1d8e:	09 f4       	brne	.+2      	; 0x1d92 <SYS_TimerTaskHandler+0x16>
    1d90:	3e c0       	rjmp	.+124    	; 0x1e0e <SYS_TimerTaskHandler+0x92>
    return;

  ATOMIC_SECTION_ENTER
    1d92:	8f b7       	in	r24, 0x3f	; 63
    1d94:	f8 94       	cli
    cnt = halTimerIrqCount;
    1d96:	60 91 f9 08 	lds	r22, 0x08F9
    halTimerIrqCount = 0;
    1d9a:	10 92 f9 08 	sts	0x08F9, r1
  ATOMIC_SECTION_LEAVE
    1d9e:	8f bf       	out	0x3f, r24	; 63

  elapsed = cnt * HAL_TIMER_INTERVAL;
    1da0:	70 e0       	ldi	r23, 0x00	; 0
    1da2:	80 e0       	ldi	r24, 0x00	; 0
    1da4:	90 e0       	ldi	r25, 0x00	; 0
    1da6:	2a e0       	ldi	r18, 0x0A	; 10
    1da8:	30 e0       	ldi	r19, 0x00	; 0
    1daa:	40 e0       	ldi	r20, 0x00	; 0
    1dac:	50 e0       	ldi	r21, 0x00	; 0
    1dae:	0e 94 83 11 	call	0x2306	; 0x2306 <__mulsi3>
    1db2:	6b 01       	movw	r12, r22
    1db4:	7c 01       	movw	r14, r24

  while (timers && (timers->timeout <= elapsed))
    1db6:	14 c0       	rjmp	.+40     	; 0x1de0 <SYS_TimerTaskHandler+0x64>
  {
    SYS_Timer_t *timer = timers;

    elapsed -= timers->timeout;
    1db8:	c8 1a       	sub	r12, r24
    1dba:	d9 0a       	sbc	r13, r25
    1dbc:	ea 0a       	sbc	r14, r26
    1dbe:	fb 0a       	sbc	r15, r27
    timers = timers->next;
    1dc0:	88 81       	ld	r24, Y
    1dc2:	99 81       	ldd	r25, Y+1	; 0x01
    1dc4:	90 93 96 08 	sts	0x0896, r25
    1dc8:	80 93 95 08 	sts	0x0895, r24
    if (SYS_TIMER_PERIODIC_MODE == timer->mode)
    1dcc:	8a 85       	ldd	r24, Y+10	; 0x0a
    1dce:	81 30       	cpi	r24, 0x01	; 1
    1dd0:	19 f4       	brne	.+6      	; 0x1dd8 <SYS_TimerTaskHandler+0x5c>
      placeTimer(timer);
    1dd2:	ce 01       	movw	r24, r28
    1dd4:	0e 94 0b 0e 	call	0x1c16	; 0x1c16 <placeTimer>
    timer->handler(timer);
    1dd8:	eb 85       	ldd	r30, Y+11	; 0x0b
    1dda:	fc 85       	ldd	r31, Y+12	; 0x0c
    1ddc:	ce 01       	movw	r24, r28
    1dde:	09 95       	icall
    halTimerIrqCount = 0;
  ATOMIC_SECTION_LEAVE

  elapsed = cnt * HAL_TIMER_INTERVAL;

  while (timers && (timers->timeout <= elapsed))
    1de0:	c0 91 95 08 	lds	r28, 0x0895
    1de4:	d0 91 96 08 	lds	r29, 0x0896
    1de8:	20 97       	sbiw	r28, 0x00	; 0
    1dea:	89 f0       	breq	.+34     	; 0x1e0e <SYS_TimerTaskHandler+0x92>
    1dec:	8a 81       	ldd	r24, Y+2	; 0x02
    1dee:	9b 81       	ldd	r25, Y+3	; 0x03
    1df0:	ac 81       	ldd	r26, Y+4	; 0x04
    1df2:	bd 81       	ldd	r27, Y+5	; 0x05
    1df4:	c8 16       	cp	r12, r24
    1df6:	d9 06       	cpc	r13, r25
    1df8:	ea 06       	cpc	r14, r26
    1dfa:	fb 06       	cpc	r15, r27
    1dfc:	e8 f6       	brcc	.-70     	; 0x1db8 <SYS_TimerTaskHandler+0x3c>
      placeTimer(timer);
    timer->handler(timer);
  }

  if (timers)
    timers->timeout -= elapsed;
    1dfe:	8c 19       	sub	r24, r12
    1e00:	9d 09       	sbc	r25, r13
    1e02:	ae 09       	sbc	r26, r14
    1e04:	bf 09       	sbc	r27, r15
    1e06:	8a 83       	std	Y+2, r24	; 0x02
    1e08:	9b 83       	std	Y+3, r25	; 0x03
    1e0a:	ac 83       	std	Y+4, r26	; 0x04
    1e0c:	bd 83       	std	Y+5, r27	; 0x05
}
    1e0e:	df 91       	pop	r29
    1e10:	cf 91       	pop	r28
    1e12:	ff 90       	pop	r15
    1e14:	ef 90       	pop	r14
    1e16:	df 90       	pop	r13
    1e18:	cf 90       	pop	r12
    1e1a:	08 95       	ret

00001e1c <appNetworkStatusTimerHandler>:
#define __INVERT_ON_OFF

#include "hal.h"
#include "halGpio.h"

HAL_GPIO_PIN(LED0, B, 4);
    1e1c:	85 b1       	in	r24, 0x05	; 5
    1e1e:	90 e1       	ldi	r25, 0x10	; 16
    1e20:	89 27       	eor	r24, r25
    1e22:	85 b9       	out	0x05, r24	; 5
*****************************************************************************/
static void appNetworkStatusTimerHandler(SYS_Timer_t *timer)
{
	ledToggle(LED_NETWORK);
	(void)timer;
}
    1e24:	08 95       	ret

00001e26 <appDataSendingTimerHandler>:

/*****************************************************************************
*****************************************************************************/
static void appDataSendingTimerHandler(SYS_Timer_t *timer)
{
	if (APP_STATE_WAIT_SEND_TIMER == appState)
    1e26:	80 91 97 08 	lds	r24, 0x0897
    1e2a:	84 30       	cpi	r24, 0x04	; 4
    1e2c:	21 f4       	brne	.+8      	; 0x1e36 <appDataSendingTimerHandler+0x10>
	appState = APP_STATE_SEND;
    1e2e:	81 e0       	ldi	r24, 0x01	; 1
    1e30:	80 93 97 08 	sts	0x0897, r24
    1e34:	08 95       	ret
	else
	SYS_TimerStart(&appDataSendingTimer);
    1e36:	88 e9       	ldi	r24, 0x98	; 152
    1e38:	98 e0       	ldi	r25, 0x08	; 8
    1e3a:	0e 94 b1 0e 	call	0x1d62	; 0x1d62 <SYS_TimerStart>
    1e3e:	08 95       	ret

00001e40 <appDataInd>:
}

/*****************************************************************************
*****************************************************************************/
static bool appDataInd(NWK_DataInd_t *ind)
{
    1e40:	df 92       	push	r13
    1e42:	ef 92       	push	r14
    1e44:	ff 92       	push	r15
    1e46:	0f 93       	push	r16
    1e48:	1f 93       	push	r17
    1e4a:	cf 93       	push	r28
    1e4c:	df 93       	push	r29
    1e4e:	fc 01       	movw	r30, r24
	AppMessage_t *msg = (AppMessage_t *)ind->data;
    1e50:	a5 81       	ldd	r26, Z+5	; 0x05
    1e52:	b6 81       	ldd	r27, Z+6	; 0x06
    1e54:	85 b1       	in	r24, 0x05	; 5
    1e56:	90 e1       	ldi	r25, 0x10	; 16
    1e58:	89 27       	eor	r24, r25
    1e5a:	85 b9       	out	0x05, r24	; 5

	ledToggle(LED_DATA);

	msg->lqi = ind->lqi;
    1e5c:	80 85       	ldd	r24, Z+8	; 0x08
    1e5e:	59 96       	adiw	r26, 0x19	; 25
    1e60:	8c 93       	st	X, r24
    1e62:	59 97       	sbiw	r26, 0x19	; 25
	msg->rssi = ind->rssi;
    1e64:	81 85       	ldd	r24, Z+9	; 0x09
    1e66:	5a 96       	adiw	r26, 0x1a	; 26
    1e68:	8c 93       	st	X, r24

	appSendMessage(ind->data, ind->size);
    1e6a:	e5 80       	ldd	r14, Z+5	; 0x05
    1e6c:	c6 81       	ldd	r28, Z+6	; 0x06
    1e6e:	d7 80       	ldd	r13, Z+7	; 0x07
*****************************************************************************/
static void appSendMessage(uint8_t *data, uint8_t size)
{
	uint8_t cs = 0;

	HAL_UartWriteByte(0x10);
    1e70:	80 e1       	ldi	r24, 0x10	; 16
    1e72:	0e 94 22 04 	call	0x844	; 0x844 <HAL_UartWriteByte>
	HAL_UartWriteByte(0x02);
    1e76:	82 e0       	ldi	r24, 0x02	; 2
    1e78:	0e 94 22 04 	call	0x844	; 0x844 <HAL_UartWriteByte>
    1e7c:	0e 2d       	mov	r16, r14
    1e7e:	1c 2f       	mov	r17, r28

/*****************************************************************************
*****************************************************************************/
static void appSendMessage(uint8_t *data, uint8_t size)
{
	uint8_t cs = 0;
    1e80:	ff 24       	eor	r15, r15
    1e82:	0f c0       	rjmp	.+30     	; 0x1ea2 <appDataInd+0x62>
	HAL_UartWriteByte(cs);
}

/*****************************************************************************
*****************************************************************************/
static bool appDataInd(NWK_DataInd_t *ind)
    1e84:	e8 01       	movw	r28, r16
	HAL_UartWriteByte(0x10);
	HAL_UartWriteByte(0x02);

	for (uint8_t i = 0; i < size; i++)
	{
		if (data[i] == 0x10)
    1e86:	88 81       	ld	r24, Y
    1e88:	80 31       	cpi	r24, 0x10	; 16
    1e8a:	21 f4       	brne	.+8      	; 0x1e94 <appDataInd+0x54>
		{
			HAL_UartWriteByte(0x10);
    1e8c:	0e 94 22 04 	call	0x844	; 0x844 <HAL_UartWriteByte>
			cs += 0x10;
    1e90:	80 e1       	ldi	r24, 0x10	; 16
    1e92:	f8 0e       	add	r15, r24
		}
		HAL_UartWriteByte(data[i]);
    1e94:	f8 01       	movw	r30, r16
    1e96:	81 91       	ld	r24, Z+
    1e98:	8f 01       	movw	r16, r30
    1e9a:	0e 94 22 04 	call	0x844	; 0x844 <HAL_UartWriteByte>
		cs += data[i];
    1e9e:	88 81       	ld	r24, Y
    1ea0:	f8 0e       	add	r15, r24
	uint8_t cs = 0;

	HAL_UartWriteByte(0x10);
	HAL_UartWriteByte(0x02);

	for (uint8_t i = 0; i < size; i++)
    1ea2:	80 2f       	mov	r24, r16
    1ea4:	8e 19       	sub	r24, r14
    1ea6:	8d 15       	cp	r24, r13
    1ea8:	68 f3       	brcs	.-38     	; 0x1e84 <appDataInd+0x44>
		}
		HAL_UartWriteByte(data[i]);
		cs += data[i];
	}

	HAL_UartWriteByte(0x10);
    1eaa:	80 e1       	ldi	r24, 0x10	; 16
    1eac:	0e 94 22 04 	call	0x844	; 0x844 <HAL_UartWriteByte>
	HAL_UartWriteByte(0x03);
    1eb0:	83 e0       	ldi	r24, 0x03	; 3
    1eb2:	0e 94 22 04 	call	0x844	; 0x844 <HAL_UartWriteByte>
	cs += 0x10 + 0x02 + 0x10 + 0x03;

	HAL_UartWriteByte(cs);
    1eb6:	8f 2d       	mov	r24, r15
    1eb8:	8b 5d       	subi	r24, 0xDB	; 219
    1eba:	0e 94 22 04 	call	0x844	; 0x844 <HAL_UartWriteByte>
	msg->lqi = ind->lqi;
	msg->rssi = ind->rssi;

	appSendMessage(ind->data, ind->size);
	return true;
}
    1ebe:	81 e0       	ldi	r24, 0x01	; 1
    1ec0:	df 91       	pop	r29
    1ec2:	cf 91       	pop	r28
    1ec4:	1f 91       	pop	r17
    1ec6:	0f 91       	pop	r16
    1ec8:	ff 90       	pop	r15
    1eca:	ef 90       	pop	r14
    1ecc:	df 90       	pop	r13
    1ece:	08 95       	ret

00001ed0 <appDataConf>:

/*****************************************************************************
*****************************************************************************/
#if APP_ROUTER || APP_ENDDEVICE
static void appDataConf(NWK_DataReq_t *req)
{
    1ed0:	cf 93       	push	r28
    1ed2:	df 93       	push	r29
    1ed4:	ec 01       	movw	r28, r24
    1ed6:	2c 98       	cbi	0x05, 4	; 5
	ledOff(LED_DATA);

	switch (req->status)
    1ed8:	8f 85       	ldd	r24, Y+15	; 0x0f
    1eda:	82 30       	cpi	r24, 0x02	; 2
    1edc:	a1 f0       	breq	.+40     	; 0x1f06 <appDataConf+0x36>
    1ede:	83 30       	cpi	r24, 0x03	; 3
    1ee0:	28 f4       	brcc	.+10     	; 0x1eec <appDataConf+0x1c>
    1ee2:	88 23       	and	r24, r24
    1ee4:	51 f0       	breq	.+20     	; 0x1efa <appDataConf+0x2a>
    1ee6:	81 30       	cpi	r24, 0x01	; 1
    1ee8:	d1 f4       	brne	.+52     	; 0x1f1e <appDataConf+0x4e>
    1eea:	0a c0       	rjmp	.+20     	; 0x1f00 <appDataConf+0x30>
    1eec:	80 32       	cpi	r24, 0x20	; 32
    1eee:	89 f0       	breq	.+34     	; 0x1f12 <appDataConf+0x42>
    1ef0:	81 32       	cpi	r24, 0x21	; 33
    1ef2:	91 f0       	breq	.+36     	; 0x1f18 <appDataConf+0x48>
    1ef4:	80 31       	cpi	r24, 0x10	; 16
    1ef6:	99 f4       	brne	.+38     	; 0x1f1e <appDataConf+0x4e>
    1ef8:	09 c0       	rjmp	.+18     	; 0x1f0c <appDataConf+0x3c>
	{
		case NWK_SUCCESS_STATUS:
		HAL_UartPrint("NWK_SUCCESS\r\n");
    1efa:	8d e1       	ldi	r24, 0x1D	; 29
    1efc:	92 e0       	ldi	r25, 0x02	; 2
    1efe:	11 c0       	rjmp	.+34     	; 0x1f22 <appDataConf+0x52>
		break;
		
		case NWK_ERROR_STATUS:
		HAL_UartPrint("NWK_ERROR\r\n");
    1f00:	8b e2       	ldi	r24, 0x2B	; 43
    1f02:	92 e0       	ldi	r25, 0x02	; 2
    1f04:	0e c0       	rjmp	.+28     	; 0x1f22 <appDataConf+0x52>
		break;
		
		case NWK_OUT_OF_MEMORY_STATUS:
		HAL_UartPrint("NWK_OUT_OF_MEMORY\r\n");
    1f06:	87 e3       	ldi	r24, 0x37	; 55
    1f08:	92 e0       	ldi	r25, 0x02	; 2
    1f0a:	0b c0       	rjmp	.+22     	; 0x1f22 <appDataConf+0x52>
		break;
		
		case NWK_NO_ACK_STATUS:
		HAL_UartPrint("NWK_NO_ACK\r\n");
    1f0c:	8b e4       	ldi	r24, 0x4B	; 75
    1f0e:	92 e0       	ldi	r25, 0x02	; 2
    1f10:	08 c0       	rjmp	.+16     	; 0x1f22 <appDataConf+0x52>
		break;
		
		case NWK_PHY_CHANNEL_ACCESS_FAILURE_STATUS:
		HAL_UartPrint("PHY_CHANNEL_ACCESS_FAILURE\r\n");
    1f12:	88 e5       	ldi	r24, 0x58	; 88
    1f14:	92 e0       	ldi	r25, 0x02	; 2
    1f16:	05 c0       	rjmp	.+10     	; 0x1f22 <appDataConf+0x52>
		break;
		
		case NWK_PHY_NO_ACK_STATUS:
		HAL_UartPrint("PHY_NO_ACK_STATUS\r\n");
    1f18:	85 e7       	ldi	r24, 0x75	; 117
    1f1a:	92 e0       	ldi	r25, 0x02	; 2
    1f1c:	02 c0       	rjmp	.+4      	; 0x1f22 <appDataConf+0x52>
		break;
		
		default:
		HAL_UartPrint("NOT SPECTED\r\n");
    1f1e:	89 e8       	ldi	r24, 0x89	; 137
    1f20:	92 e0       	ldi	r25, 0x02	; 2
    1f22:	0e 94 4c 04 	call	0x898	; 0x898 <HAL_UartPrint>
		break;
	}

	if (NWK_SUCCESS_STATUS == req->status)
    1f26:	8f 85       	ldd	r24, Y+15	; 0x0f
    1f28:	20 91 d6 08 	lds	r18, 0x08D6
    1f2c:	88 23       	and	r24, r24
    1f2e:	59 f4       	brne	.+22     	; 0x1f46 <appDataConf+0x76>
	{
		if (!appNetworkStatus)
    1f30:	22 23       	and	r18, r18
    1f32:	29 f5       	brne	.+74     	; 0x1f7e <appDataConf+0xae>
    1f34:	2c 9a       	sbi	0x05, 4	; 5
		{
			ledOn(LED_NETWORK);
			SYS_TimerStop(&appNetworkStatusTimer);
    1f36:	87 ed       	ldi	r24, 0xD7	; 215
    1f38:	98 e0       	ldi	r25, 0x08	; 8
    1f3a:	0e 94 67 0e 	call	0x1cce	; 0x1cce <SYS_TimerStop>
			appNetworkStatus = true;
    1f3e:	81 e0       	ldi	r24, 0x01	; 1
    1f40:	80 93 d6 08 	sts	0x08D6, r24
    1f44:	1c c0       	rjmp	.+56     	; 0x1f7e <appDataConf+0xae>
		}
	}
	else
	{
		msg.sensors.light++;
    1f46:	80 91 ca 08 	lds	r24, 0x08CA
    1f4a:	90 91 cb 08 	lds	r25, 0x08CB
    1f4e:	a0 91 cc 08 	lds	r26, 0x08CC
    1f52:	b0 91 cd 08 	lds	r27, 0x08CD
    1f56:	01 96       	adiw	r24, 0x01	; 1
    1f58:	a1 1d       	adc	r26, r1
    1f5a:	b1 1d       	adc	r27, r1
    1f5c:	80 93 ca 08 	sts	0x08CA, r24
    1f60:	90 93 cb 08 	sts	0x08CB, r25
    1f64:	a0 93 cc 08 	sts	0x08CC, r26
    1f68:	b0 93 cd 08 	sts	0x08CD, r27

		if (appNetworkStatus)
    1f6c:	22 23       	and	r18, r18
    1f6e:	39 f0       	breq	.+14     	; 0x1f7e <appDataConf+0xae>
    1f70:	2c 98       	cbi	0x05, 4	; 5
		{
			ledOff(LED_NETWORK);
			SYS_TimerStart(&appNetworkStatusTimer);
    1f72:	87 ed       	ldi	r24, 0xD7	; 215
    1f74:	98 e0       	ldi	r25, 0x08	; 8
    1f76:	0e 94 b1 0e 	call	0x1d62	; 0x1d62 <SYS_TimerStart>
			appNetworkStatus = false;
    1f7a:	10 92 d6 08 	sts	0x08D6, r1
		}
	}

	appState = APP_STATE_SENDING_DONE;
    1f7e:	83 e0       	ldi	r24, 0x03	; 3
    1f80:	80 93 97 08 	sts	0x0897, r24
}
    1f84:	df 91       	pop	r29
    1f86:	cf 91       	pop	r28
    1f88:	08 95       	ret

00001f8a <HAL_UartBytesReceived>:
static SYS_Timer_t appDataSendingTimer;

/*****************************************************************************
*****************************************************************************/
void HAL_UartBytesReceived(uint16_t bytes)
{
    1f8a:	0f 93       	push	r16
    1f8c:	1f 93       	push	r17
    1f8e:	cf 93       	push	r28
    1f90:	df 93       	push	r29
    1f92:	8c 01       	movw	r16, r24
	for (uint16_t i = 0; i < bytes; i++)
    1f94:	c0 e0       	ldi	r28, 0x00	; 0
    1f96:	d0 e0       	ldi	r29, 0x00	; 0
    1f98:	03 c0       	rjmp	.+6      	; 0x1fa0 <HAL_UartBytesReceived+0x16>
	HAL_UartReadByte();
    1f9a:	0e 94 7b 04 	call	0x8f6	; 0x8f6 <HAL_UartReadByte>

/*****************************************************************************
*****************************************************************************/
void HAL_UartBytesReceived(uint16_t bytes)
{
	for (uint16_t i = 0; i < bytes; i++)
    1f9e:	21 96       	adiw	r28, 0x01	; 1
    1fa0:	c0 17       	cp	r28, r16
    1fa2:	d1 07       	cpc	r29, r17
    1fa4:	d1 f7       	brne	.-12     	; 0x1f9a <HAL_UartBytesReceived+0x10>
    1fa6:	85 b1       	in	r24, 0x05	; 5
    1fa8:	90 e1       	ldi	r25, 0x10	; 16
    1faa:	89 27       	eor	r24, r25
    1fac:	85 b9       	out	0x05, r24	; 5
	HAL_UartReadByte();
	ledToggle(2);
}
    1fae:	df 91       	pop	r29
    1fb0:	cf 91       	pop	r28
    1fb2:	1f 91       	pop	r17
    1fb4:	0f 91       	pop	r16
    1fb6:	08 95       	ret

00001fb8 <PHY_RandomConf>:
#ifdef PHY_ENABLE_RANDOM_NUMBER_GENERATOR
/*****************************************************************************
*****************************************************************************/
void PHY_RandomConf(uint16_t rnd)
{
	srand(rnd);
    1fb8:	0e 94 32 12 	call	0x2464	; 0x2464 <srand>
}
    1fbc:	08 95       	ret

00001fbe <main>:

/*****************************************************************************
*****************************************************************************/
int main(void)
{
	SYS_Init();
    1fbe:	0e 94 fb 0d 	call	0x1bf6	; 0x1bf6 <SYS_Init>
	
	HAL_UartInit(38400);
    1fc2:	60 e0       	ldi	r22, 0x00	; 0
    1fc4:	76 e9       	ldi	r23, 0x96	; 150
    1fc6:	80 e0       	ldi	r24, 0x00	; 0
    1fc8:	90 e0       	ldi	r25, 0x00	; 0
    1fca:	0e 94 c6 03 	call	0x78c	; 0x78c <HAL_UartInit>
	
	RTC_Init();
    1fce:	0e 94 66 01 	call	0x2cc	; 0x2cc <RTC_Init>
	currentTime.hour = 11;
    1fd2:	8b e0       	ldi	r24, 0x0B	; 11
    1fd4:	80 93 0e 19 	sts	0x190E, r24
	currentTime.minute = 11;
    1fd8:	80 93 0f 19 	sts	0x190F, r24
	currentTime.second = 00;
    1fdc:	10 92 10 19 	sts	0x1910, r1
	
	EEPROM_Init();
    1fe0:	0e 94 4d 01 	call	0x29a	; 0x29a <EEPROM_Init>
	
	Validate_Time(&currentTime);
    1fe4:	8e e0       	ldi	r24, 0x0E	; 14
    1fe6:	99 e1       	ldi	r25, 0x19	; 25
    1fe8:	0e 94 8a 01 	call	0x314	; 0x314 <Validate_Time>
*****************************************************************************/
static void appInit(void)
{
	msg.messageType          = 1;
	msg.nodeType             = APP_NODE_TYPE;
	msg.extAddr              = APP_ADDR;
    1fec:	07 ea       	ldi	r16, 0xA7	; 167
    1fee:	18 e0       	ldi	r17, 0x08	; 8

	NWK_OpenEndpoint(APP_ENDPOINT, appDataInd);

	appDataSendingTimer.interval = APP_SENDING_INTERVAL;
	appDataSendingTimer.mode = SYS_TIMER_INTERVAL_MODE;
	appDataSendingTimer.handler = appDataSendingTimerHandler;
    1ff0:	83 e1       	ldi	r24, 0x13	; 19
    1ff2:	e8 2e       	mov	r14, r24
    1ff4:	8f e0       	ldi	r24, 0x0F	; 15
    1ff6:	f8 2e       	mov	r15, r24

	#if APP_ROUTER || APP_ENDDEVICE
	appNetworkStatus = false;
	appNetworkStatusTimer.interval = 500;
	appNetworkStatusTimer.mode = SYS_TIMER_PERIODIC_MODE;
	appNetworkStatusTimer.handler = appNetworkStatusTimerHandler;
    1ff8:	9e e0       	ldi	r25, 0x0E	; 14
    1ffa:	c9 2e       	mov	r12, r25
    1ffc:	9f e0       	ldi	r25, 0x0F	; 15
    1ffe:	d9 2e       	mov	r13, r25
	#else
	nwkDataReq.dstAddr = 0;
	nwkDataReq.dstEndpoint = APP_ENDPOINT;
	nwkDataReq.srcEndpoint = APP_ENDPOINT;
	nwkDataReq.options = NWK_OPT_ACK_REQUEST | NWK_OPT_ENABLE_SECURITY;
	nwkDataReq.data = (uint8_t *)&msg;
    2000:	2e ef       	ldi	r18, 0xFE	; 254
    2002:	a2 2e       	mov	r10, r18
    2004:	2f ef       	ldi	r18, 0xFF	; 255
    2006:	b2 2e       	mov	r11, r18
    2008:	a0 0e       	add	r10, r16
    200a:	b1 1e       	adc	r11, r17
	nwkDataReq.size = sizeof(msg);
	nwkDataReq.confirm = appDataConf;
    200c:	38 e6       	ldi	r19, 0x68	; 104
    200e:	83 2e       	mov	r8, r19
    2010:	3f e0       	ldi	r19, 0x0F	; 15
    2012:	93 2e       	mov	r9, r19
	OTA_ClientInit();
	#endif

	while (1)
	{
		SYS_TaskHandler();
    2014:	0e 94 04 0e 	call	0x1c08	; 0x1c08 <SYS_TaskHandler>
		HAL_UartTaskHandler();
    2018:	0e 94 1d 05 	call	0xa3a	; 0xa3a <HAL_UartTaskHandler>

/*****************************************************************************
*****************************************************************************/
static void APP_TaskHandler(void)
{
	switch (appState)
    201c:	c0 91 97 08 	lds	r28, 0x0897
    2020:	c3 30       	cpi	r28, 0x03	; 3
    2022:	09 f4       	brne	.+2      	; 0x2026 <main+0x68>
    2024:	48 c1       	rjmp	.+656    	; 0x22b6 <main+0x2f8>
    2026:	c4 30       	cpi	r28, 0x04	; 4
    2028:	28 f4       	brcc	.+10     	; 0x2034 <main+0x76>
    202a:	cc 23       	and	r28, r28
    202c:	61 f0       	breq	.+24     	; 0x2046 <main+0x88>
    202e:	c1 30       	cpi	r28, 0x01	; 1
    2030:	89 f7       	brne	.-30     	; 0x2014 <main+0x56>
    2032:	bd c0       	rjmp	.+378    	; 0x21ae <main+0x1f0>
    2034:	c6 30       	cpi	r28, 0x06	; 6
    2036:	09 f4       	brne	.+2      	; 0x203a <main+0x7c>
    2038:	4d c1       	rjmp	.+666    	; 0x22d4 <main+0x316>
    203a:	c7 30       	cpi	r28, 0x07	; 7
    203c:	09 f4       	brne	.+2      	; 0x2040 <main+0x82>
    203e:	57 c1       	rjmp	.+686    	; 0x22ee <main+0x330>
    2040:	c5 30       	cpi	r28, 0x05	; 5
    2042:	41 f7       	brne	.-48     	; 0x2014 <main+0x56>
    2044:	3e c1       	rjmp	.+636    	; 0x22c2 <main+0x304>

/*****************************************************************************
*****************************************************************************/
static void appInit(void)
{
	msg.messageType          = 1;
    2046:	21 e0       	ldi	r18, 0x01	; 1
    2048:	20 93 a5 08 	sts	0x08A5, r18
	msg.nodeType             = APP_NODE_TYPE;
    204c:	20 93 a6 08 	sts	0x08A6, r18
	msg.extAddr              = APP_ADDR;
    2050:	82 e0       	ldi	r24, 0x02	; 2
    2052:	80 93 a7 08 	sts	0x08A7, r24
    2056:	80 e4       	ldi	r24, 0x40	; 64
    2058:	f8 01       	movw	r30, r16
    205a:	81 83       	std	Z+1, r24	; 0x01
    205c:	12 82       	std	Z+2, r1	; 0x02
    205e:	13 82       	std	Z+3, r1	; 0x03
    2060:	14 82       	std	Z+4, r1	; 0x04
    2062:	15 82       	std	Z+5, r1	; 0x05
    2064:	16 82       	std	Z+6, r1	; 0x06
    2066:	17 82       	std	Z+7, r1	; 0x07
	msg.shortAddr            = APP_ADDR;
    2068:	82 e0       	ldi	r24, 0x02	; 2
    206a:	90 e4       	ldi	r25, 0x40	; 64
    206c:	90 93 b0 08 	sts	0x08B0, r25
    2070:	80 93 af 08 	sts	0x08AF, r24
	msg.softVersion          = 0x01010100;
    2074:	80 e0       	ldi	r24, 0x00	; 0
    2076:	91 e0       	ldi	r25, 0x01	; 1
    2078:	a1 e0       	ldi	r26, 0x01	; 1
    207a:	b1 e0       	ldi	r27, 0x01	; 1
    207c:	80 93 b1 08 	sts	0x08B1, r24
    2080:	90 93 b2 08 	sts	0x08B2, r25
    2084:	a0 93 b3 08 	sts	0x08B3, r26
    2088:	b0 93 b4 08 	sts	0x08B4, r27
	msg.channelMask          = (1L << APP_CHANNEL);
    208c:	80 e0       	ldi	r24, 0x00	; 0
    208e:	90 e8       	ldi	r25, 0x80	; 128
    2090:	a0 e0       	ldi	r26, 0x00	; 0
    2092:	b0 e0       	ldi	r27, 0x00	; 0
    2094:	80 93 b5 08 	sts	0x08B5, r24
    2098:	90 93 b6 08 	sts	0x08B6, r25
    209c:	a0 93 b7 08 	sts	0x08B7, r26
    20a0:	b0 93 b8 08 	sts	0x08B8, r27
	msg.panId                = APP_PANID;
    20a4:	84 e3       	ldi	r24, 0x34	; 52
    20a6:	92 e1       	ldi	r25, 0x12	; 18
    20a8:	90 93 ba 08 	sts	0x08BA, r25
    20ac:	80 93 b9 08 	sts	0x08B9, r24
	msg.workingChannel       = APP_CHANNEL;
    20b0:	8f e0       	ldi	r24, 0x0F	; 15
    20b2:	80 93 bb 08 	sts	0x08BB, r24
	msg.parentShortAddr      = 0;
    20b6:	10 92 bd 08 	sts	0x08BD, r1
    20ba:	10 92 bc 08 	sts	0x08BC, r1
	msg.lqi                  = 0;
    20be:	10 92 be 08 	sts	0x08BE, r1
	msg.rssi                 = 0;
    20c2:	10 92 bf 08 	sts	0x08BF, r1

	msg.sensors.type        = 1;
    20c6:	20 93 c0 08 	sts	0x08C0, r18
	msg.sensors.size        = sizeof(int32_t) * 3;
    20ca:	8c e0       	ldi	r24, 0x0C	; 12
    20cc:	80 93 c1 08 	sts	0x08C1, r24
	msg.sensors.battery     = 0;
    20d0:	10 92 c2 08 	sts	0x08C2, r1
    20d4:	10 92 c3 08 	sts	0x08C3, r1
    20d8:	10 92 c4 08 	sts	0x08C4, r1
    20dc:	10 92 c5 08 	sts	0x08C5, r1
	msg.sensors.temperature = 0;
    20e0:	10 92 c6 08 	sts	0x08C6, r1
    20e4:	10 92 c7 08 	sts	0x08C7, r1
    20e8:	10 92 c8 08 	sts	0x08C8, r1
    20ec:	10 92 c9 08 	sts	0x08C9, r1
	msg.sensors.light       = 0;
    20f0:	10 92 ca 08 	sts	0x08CA, r1
    20f4:	10 92 cb 08 	sts	0x08CB, r1
    20f8:	10 92 cc 08 	sts	0x08CC, r1
    20fc:	10 92 cd 08 	sts	0x08CD, r1

	msg.caption.type         = 32;
    2100:	80 e2       	ldi	r24, 0x20	; 32
    2102:	80 93 ce 08 	sts	0x08CE, r24
	msg.caption.size         = APP_CAPTION_SIZE;
    2106:	86 e0       	ldi	r24, 0x06	; 6
    2108:	80 93 cf 08 	sts	0x08CF, r24
	memcpy(msg.caption.text, APP_CAPTION, APP_CAPTION_SIZE);
    210c:	e0 ed       	ldi	r30, 0xD0	; 208
    210e:	f8 e0       	ldi	r31, 0x08	; 8
    2110:	a7 e9       	ldi	r26, 0x97	; 151
    2112:	b2 e0       	ldi	r27, 0x02	; 2
    2114:	0d 90       	ld	r0, X+
    2116:	01 92       	st	Z+, r0
    2118:	81 50       	subi	r24, 0x01	; 1
    211a:	e1 f7       	brne	.-8      	; 0x2114 <main+0x156>
    211c:	24 9a       	sbi	0x04, 4	; 4
    211e:	2c 9a       	sbi	0x05, 4	; 5
	#endif
	#endif

	ledsInit();

	NWK_SetAddr(APP_ADDR);
    2120:	82 e0       	ldi	r24, 0x02	; 2
    2122:	90 e4       	ldi	r25, 0x40	; 64
    2124:	0e 94 7d 05 	call	0xafa	; 0xafa <NWK_SetAddr>
	NWK_SetPanId(APP_PANID);
    2128:	84 e3       	ldi	r24, 0x34	; 52
    212a:	92 e1       	ldi	r25, 0x12	; 18
    212c:	0e 94 84 05 	call	0xb08	; 0xb08 <NWK_SetPanId>
	PHY_SetChannel(APP_CHANNEL);
    2130:	8f e0       	ldi	r24, 0x0F	; 15
    2132:	0e 94 a6 0c 	call	0x194c	; 0x194c <PHY_SetChannel>
	PHY_SetRxState(true);
    2136:	81 e0       	ldi	r24, 0x01	; 1
    2138:	0e 94 9e 0c 	call	0x193c	; 0x193c <PHY_SetRxState>

	#ifdef NWK_ENABLE_SECURITY
	NWK_SetSecurityKey((uint8_t *)APP_SECURITY_KEY);
	#endif

	NWK_OpenEndpoint(APP_ENDPOINT, appDataInd);
    213c:	81 e0       	ldi	r24, 0x01	; 1
    213e:	60 e2       	ldi	r22, 0x20	; 32
    2140:	7f e0       	ldi	r23, 0x0F	; 15
    2142:	0e 94 8b 05 	call	0xb16	; 0xb16 <NWK_OpenEndpoint>

	appDataSendingTimer.interval = APP_SENDING_INTERVAL;
    2146:	80 ed       	ldi	r24, 0xD0	; 208
    2148:	97 e0       	ldi	r25, 0x07	; 7
    214a:	a0 e0       	ldi	r26, 0x00	; 0
    214c:	b0 e0       	ldi	r27, 0x00	; 0
    214e:	80 93 9e 08 	sts	0x089E, r24
    2152:	90 93 9f 08 	sts	0x089F, r25
    2156:	a0 93 a0 08 	sts	0x08A0, r26
    215a:	b0 93 a1 08 	sts	0x08A1, r27
	appDataSendingTimer.mode = SYS_TIMER_INTERVAL_MODE;
    215e:	10 92 a2 08 	sts	0x08A2, r1
	appDataSendingTimer.handler = appDataSendingTimerHandler;
    2162:	f0 92 a4 08 	sts	0x08A4, r15
    2166:	e0 92 a3 08 	sts	0x08A3, r14

	#if APP_ROUTER || APP_ENDDEVICE
	appNetworkStatus = false;
    216a:	10 92 d6 08 	sts	0x08D6, r1
	appNetworkStatusTimer.interval = 500;
    216e:	84 ef       	ldi	r24, 0xF4	; 244
    2170:	91 e0       	ldi	r25, 0x01	; 1
    2172:	a0 e0       	ldi	r26, 0x00	; 0
    2174:	b0 e0       	ldi	r27, 0x00	; 0
    2176:	80 93 dd 08 	sts	0x08DD, r24
    217a:	90 93 de 08 	sts	0x08DE, r25
    217e:	a0 93 df 08 	sts	0x08DF, r26
    2182:	b0 93 e0 08 	sts	0x08E0, r27
	appNetworkStatusTimer.mode = SYS_TIMER_PERIODIC_MODE;
    2186:	c1 e0       	ldi	r28, 0x01	; 1
    2188:	c0 93 e1 08 	sts	0x08E1, r28
	appNetworkStatusTimer.handler = appNetworkStatusTimerHandler;
    218c:	d0 92 e3 08 	sts	0x08E3, r13
    2190:	c0 92 e2 08 	sts	0x08E2, r12
	SYS_TimerStart(&appNetworkStatusTimer);
    2194:	87 ed       	ldi	r24, 0xD7	; 215
    2196:	98 e0       	ldi	r25, 0x08	; 8
    2198:	0e 94 b1 0e 	call	0x1d62	; 0x1d62 <SYS_TimerStart>
	
	HAL_UartPrint("ROUTER\r\n");
    219c:	8e e9       	ldi	r24, 0x9E	; 158
    219e:	92 e0       	ldi	r25, 0x02	; 2
    21a0:	0e 94 4c 04 	call	0x898	; 0x898 <HAL_UartPrint>
	#else
	ledOn(LED_NETWORK);
	#endif

	#ifdef PHY_ENABLE_RANDOM_NUMBER_GENERATOR
	PHY_RandomReq();
    21a4:	0e 94 12 0d 	call	0x1a24	; 0x1a24 <PHY_RandomReq>
	#endif

	appState = APP_STATE_SEND;
    21a8:	c0 93 97 08 	sts	0x0897, r28
    21ac:	33 cf       	rjmp	.-410    	; 0x2014 <main+0x56>
unsigned int adcVal;
char buf[5];
static void appSendData(void)
{
	#ifdef NWK_ENABLE_ROUTING
	msg.parentShortAddr = NWK_RouteNextHop(0);
    21ae:	80 e0       	ldi	r24, 0x00	; 0
    21b0:	90 e0       	ldi	r25, 0x00	; 0
    21b2:	0e 94 3b 08 	call	0x1076	; 0x1076 <NWK_RouteNextHop>
    21b6:	90 93 bd 08 	sts	0x08BD, r25
    21ba:	80 93 bc 08 	sts	0x08BC, r24
	#else
	msg.parentShortAddr = 0;
	#endif

	msg.sensors.battery     = rand();
    21be:	0e 94 2d 12 	call	0x245a	; 0x245a <rand>
    21c2:	aa 27       	eor	r26, r26
    21c4:	97 fd       	sbrc	r25, 7
    21c6:	a0 95       	com	r26
    21c8:	ba 2f       	mov	r27, r26
    21ca:	80 93 c2 08 	sts	0x08C2, r24
    21ce:	90 93 c3 08 	sts	0x08C3, r25
    21d2:	a0 93 c4 08 	sts	0x08C4, r26
    21d6:	b0 93 c5 08 	sts	0x08C5, r27
	msg.sensors.temperature = rand() & 0x7f;
    21da:	0e 94 2d 12 	call	0x245a	; 0x245a <rand>
    21de:	aa 27       	eor	r26, r26
    21e0:	97 fd       	sbrc	r25, 7
    21e2:	a0 95       	com	r26
    21e4:	ba 2f       	mov	r27, r26
    21e6:	8f 77       	andi	r24, 0x7F	; 127
    21e8:	90 70       	andi	r25, 0x00	; 0
    21ea:	a0 70       	andi	r26, 0x00	; 0
    21ec:	b0 70       	andi	r27, 0x00	; 0
    21ee:	80 93 c6 08 	sts	0x08C6, r24
    21f2:	90 93 c7 08 	sts	0x08C7, r25
    21f6:	a0 93 c8 08 	sts	0x08C8, r26
    21fa:	b0 93 c9 08 	sts	0x08C9, r27
	#if APP_COORDINATOR
	appSendMessage((uint8_t *)&msg, sizeof(msg));
	SYS_TimerStart(&appDataSendingTimer);
	appState = APP_STATE_WAIT_SEND_TIMER;
	#else
	nwkDataReq.dstAddr = 0;
    21fe:	10 92 ea 08 	sts	0x08EA, r1
    2202:	10 92 e9 08 	sts	0x08E9, r1
	nwkDataReq.dstEndpoint = APP_ENDPOINT;
    2206:	c0 93 eb 08 	sts	0x08EB, r28
	nwkDataReq.srcEndpoint = APP_ENDPOINT;
    220a:	c0 93 ec 08 	sts	0x08EC, r28
	nwkDataReq.options = NWK_OPT_ACK_REQUEST | NWK_OPT_ENABLE_SECURITY;
    220e:	83 e0       	ldi	r24, 0x03	; 3
    2210:	80 93 ed 08 	sts	0x08ED, r24
	nwkDataReq.data = (uint8_t *)&msg;
    2214:	b0 92 ef 08 	sts	0x08EF, r11
    2218:	a0 92 ee 08 	sts	0x08EE, r10
	nwkDataReq.size = sizeof(msg);
    221c:	81 e3       	ldi	r24, 0x31	; 49
    221e:	80 93 f0 08 	sts	0x08F0, r24
	nwkDataReq.confirm = appDataConf;
    2222:	90 92 f2 08 	sts	0x08F2, r9
    2226:	80 92 f1 08 	sts	0x08F1, r8
    222a:	2c 9a       	sbi	0x05, 4	; 5

	ledOn(LED_DATA);
	
	NWK_DataReq(&nwkDataReq);
    222c:	84 ee       	ldi	r24, 0xE4	; 228
    222e:	98 e0       	ldi	r25, 0x08	; 8
    2230:	0e 94 da 05 	call	0xbb4	; 0xbb4 <NWK_DataReq>
	numWrite(currentTime.hour);
    2234:	80 91 0e 19 	lds	r24, 0x190E
    2238:	90 e0       	ldi	r25, 0x00	; 0
    223a:	0e 94 98 01 	call	0x330	; 0x330 <numWrite>
	HAL_UartWriteByte(':');
    223e:	8a e3       	ldi	r24, 0x3A	; 58
    2240:	0e 94 22 04 	call	0x844	; 0x844 <HAL_UartWriteByte>
	numWrite(currentTime.minute);
    2244:	80 91 0f 19 	lds	r24, 0x190F
    2248:	90 e0       	ldi	r25, 0x00	; 0
    224a:	0e 94 98 01 	call	0x330	; 0x330 <numWrite>
	HAL_UartWriteByte(':');
    224e:	8a e3       	ldi	r24, 0x3A	; 58
    2250:	0e 94 22 04 	call	0x844	; 0x844 <HAL_UartWriteByte>
	numWrite(currentTime.second);
    2254:	80 91 10 19 	lds	r24, 0x1910
    2258:	90 e0       	ldi	r25, 0x00	; 0
    225a:	0e 94 98 01 	call	0x330	; 0x330 <numWrite>
	HAL_UartPrint("\r\n");
    225e:	87 ea       	ldi	r24, 0xA7	; 167
    2260:	92 e0       	ldi	r25, 0x02	; 2
    2262:	0e 94 4c 04 	call	0x898	; 0x898 <HAL_UartPrint>
	
	ADC_Reference(REF_DEFAULT);
    2266:	81 e0       	ldi	r24, 0x01	; 1
    2268:	0e 94 1a 01 	call	0x234	; 0x234 <ADC_Reference>
	adcVal = ADC_Read(ADC4);
    226c:	84 e0       	ldi	r24, 0x04	; 4
    226e:	0e 94 1d 01 	call	0x23a	; 0x23a <ADC_Read>
    2272:	90 93 08 09 	sts	0x0908, r25
    2276:	80 93 07 09 	sts	0x0907, r24
	//ADC_Reference(REF_INTERNAL_16);
	//adcVal = ADC_Read(INTERNAL_TEMP);
	//adcVal = 1.13 * adcVal - 272.8;
	HAL_UartPrint("TEMP: ");
    227a:	8a ea       	ldi	r24, 0xAA	; 170
    227c:	92 e0       	ldi	r25, 0x02	; 2
    227e:	0e 94 4c 04 	call	0x898	; 0x898 <HAL_UartPrint>
	//numWrite(adcVal);
	itoa(adcVal, buf, 10);
    2282:	80 91 07 09 	lds	r24, 0x0907
    2286:	90 91 08 09 	lds	r25, 0x0908
    228a:	69 e0       	ldi	r22, 0x09	; 9
    228c:	79 e0       	ldi	r23, 0x09	; 9
    228e:	4a e0       	ldi	r20, 0x0A	; 10
    2290:	50 e0       	ldi	r21, 0x00	; 0
    2292:	0e 94 46 12 	call	0x248c	; 0x248c <itoa>
	HAL_UartPrint(buf);
    2296:	89 e0       	ldi	r24, 0x09	; 9
    2298:	99 e0       	ldi	r25, 0x09	; 9
    229a:	0e 94 4c 04 	call	0x898	; 0x898 <HAL_UartPrint>
	HAL_UartWriteByte('');
    229e:	8a eb       	ldi	r24, 0xBA	; 186
    22a0:	0e 94 22 04 	call	0x844	; 0x844 <HAL_UartWriteByte>
	HAL_UartWriteByte('C');
    22a4:	83 e4       	ldi	r24, 0x43	; 67
    22a6:	0e 94 22 04 	call	0x844	; 0x844 <HAL_UartWriteByte>
	HAL_UartPrint("\r\n");
    22aa:	87 ea       	ldi	r24, 0xA7	; 167
    22ac:	92 e0       	ldi	r25, 0x02	; 2
    22ae:	0e 94 4c 04 	call	0x898	; 0x898 <HAL_UartPrint>

	appState = APP_STATE_WAIT_CONF;
    22b2:	82 e0       	ldi	r24, 0x02	; 2
    22b4:	25 c0       	rjmp	.+74     	; 0x2300 <main+0x342>
		case APP_STATE_SENDING_DONE:
		{
			#if APP_ENDDEVICE
			appState = APP_STATE_PREPARE_TO_SLEEP;
			#else
			SYS_TimerStart(&appDataSendingTimer);
    22b6:	88 e9       	ldi	r24, 0x98	; 152
    22b8:	98 e0       	ldi	r25, 0x08	; 8
    22ba:	0e 94 b1 0e 	call	0x1d62	; 0x1d62 <SYS_TimerStart>
			appState = APP_STATE_WAIT_SEND_TIMER;
    22be:	84 e0       	ldi	r24, 0x04	; 4
    22c0:	1f c0       	rjmp	.+62     	; 0x2300 <main+0x342>
			#endif
		} break;

		case APP_STATE_PREPARE_TO_SLEEP:
		{
			if (!NWK_Busy())
    22c2:	0e 94 94 05 	call	0xb28	; 0xb28 <NWK_Busy>
    22c6:	88 23       	and	r24, r24
    22c8:	09 f0       	breq	.+2      	; 0x22cc <main+0x30e>
    22ca:	a4 ce       	rjmp	.-696    	; 0x2014 <main+0x56>
			{
				NWK_SleepReq();
    22cc:	0e 94 a9 05 	call	0xb52	; 0xb52 <NWK_SleepReq>
				appState = APP_STATE_SLEEP;
    22d0:	86 e0       	ldi	r24, 0x06	; 6
    22d2:	16 c0       	rjmp	.+44     	; 0x2300 <main+0x342>
    22d4:	24 98       	cbi	0x04, 4	; 4
    22d6:	2c 98       	cbi	0x05, 4	; 5

		case APP_STATE_SLEEP:
		{
			ledsClose();

			PHY_SetRxState(false);
    22d8:	80 e0       	ldi	r24, 0x00	; 0
    22da:	0e 94 9e 0c 	call	0x193c	; 0x193c <PHY_SetRxState>

			HAL_Sleep(APP_SENDING_INTERVAL);
    22de:	60 ed       	ldi	r22, 0xD0	; 208
    22e0:	77 e0       	ldi	r23, 0x07	; 7
    22e2:	80 e0       	ldi	r24, 0x00	; 0
    22e4:	90 e0       	ldi	r25, 0x00	; 0
    22e6:	0e 94 cf 02 	call	0x59e	; 0x59e <HAL_Sleep>
			appState = APP_STATE_WAKEUP;
    22ea:	87 e0       	ldi	r24, 0x07	; 7
    22ec:	09 c0       	rjmp	.+18     	; 0x2300 <main+0x342>
		} break;

		case APP_STATE_WAKEUP:
		{
			NWK_WakeupReq();
    22ee:	0e 94 ac 05 	call	0xb58	; 0xb58 <NWK_WakeupReq>
    22f2:	24 9a       	sbi	0x04, 4	; 4
    22f4:	2c 9a       	sbi	0x05, 4	; 5
    22f6:	2c 9a       	sbi	0x05, 4	; 5

			ledsInit();
			ledOn(LED_NETWORK);

			PHY_SetRxState(true);
    22f8:	81 e0       	ldi	r24, 0x01	; 1
    22fa:	0e 94 9e 0c 	call	0x193c	; 0x193c <PHY_SetRxState>

			appState = APP_STATE_SEND;
    22fe:	81 e0       	ldi	r24, 0x01	; 1
    2300:	80 93 97 08 	sts	0x0897, r24
    2304:	87 ce       	rjmp	.-754    	; 0x2014 <main+0x56>

00002306 <__mulsi3>:
    2306:	62 9f       	mul	r22, r18
    2308:	d0 01       	movw	r26, r0
    230a:	73 9f       	mul	r23, r19
    230c:	f0 01       	movw	r30, r0
    230e:	82 9f       	mul	r24, r18
    2310:	e0 0d       	add	r30, r0
    2312:	f1 1d       	adc	r31, r1
    2314:	64 9f       	mul	r22, r20
    2316:	e0 0d       	add	r30, r0
    2318:	f1 1d       	adc	r31, r1
    231a:	92 9f       	mul	r25, r18
    231c:	f0 0d       	add	r31, r0
    231e:	83 9f       	mul	r24, r19
    2320:	f0 0d       	add	r31, r0
    2322:	74 9f       	mul	r23, r20
    2324:	f0 0d       	add	r31, r0
    2326:	65 9f       	mul	r22, r21
    2328:	f0 0d       	add	r31, r0
    232a:	99 27       	eor	r25, r25
    232c:	72 9f       	mul	r23, r18
    232e:	b0 0d       	add	r27, r0
    2330:	e1 1d       	adc	r30, r1
    2332:	f9 1f       	adc	r31, r25
    2334:	63 9f       	mul	r22, r19
    2336:	b0 0d       	add	r27, r0
    2338:	e1 1d       	adc	r30, r1
    233a:	f9 1f       	adc	r31, r25
    233c:	bd 01       	movw	r22, r26
    233e:	cf 01       	movw	r24, r30
    2340:	11 24       	eor	r1, r1
    2342:	08 95       	ret

00002344 <__udivmodhi4>:
    2344:	aa 1b       	sub	r26, r26
    2346:	bb 1b       	sub	r27, r27
    2348:	51 e1       	ldi	r21, 0x11	; 17
    234a:	07 c0       	rjmp	.+14     	; 0x235a <__udivmodhi4_ep>

0000234c <__udivmodhi4_loop>:
    234c:	aa 1f       	adc	r26, r26
    234e:	bb 1f       	adc	r27, r27
    2350:	a6 17       	cp	r26, r22
    2352:	b7 07       	cpc	r27, r23
    2354:	10 f0       	brcs	.+4      	; 0x235a <__udivmodhi4_ep>
    2356:	a6 1b       	sub	r26, r22
    2358:	b7 0b       	sbc	r27, r23

0000235a <__udivmodhi4_ep>:
    235a:	88 1f       	adc	r24, r24
    235c:	99 1f       	adc	r25, r25
    235e:	5a 95       	dec	r21
    2360:	a9 f7       	brne	.-22     	; 0x234c <__udivmodhi4_loop>
    2362:	80 95       	com	r24
    2364:	90 95       	com	r25
    2366:	bc 01       	movw	r22, r24
    2368:	cd 01       	movw	r24, r26
    236a:	08 95       	ret

0000236c <__udivmodsi4>:
    236c:	a1 e2       	ldi	r26, 0x21	; 33
    236e:	1a 2e       	mov	r1, r26
    2370:	aa 1b       	sub	r26, r26
    2372:	bb 1b       	sub	r27, r27
    2374:	fd 01       	movw	r30, r26
    2376:	0d c0       	rjmp	.+26     	; 0x2392 <__udivmodsi4_ep>

00002378 <__udivmodsi4_loop>:
    2378:	aa 1f       	adc	r26, r26
    237a:	bb 1f       	adc	r27, r27
    237c:	ee 1f       	adc	r30, r30
    237e:	ff 1f       	adc	r31, r31
    2380:	a2 17       	cp	r26, r18
    2382:	b3 07       	cpc	r27, r19
    2384:	e4 07       	cpc	r30, r20
    2386:	f5 07       	cpc	r31, r21
    2388:	20 f0       	brcs	.+8      	; 0x2392 <__udivmodsi4_ep>
    238a:	a2 1b       	sub	r26, r18
    238c:	b3 0b       	sbc	r27, r19
    238e:	e4 0b       	sbc	r30, r20
    2390:	f5 0b       	sbc	r31, r21

00002392 <__udivmodsi4_ep>:
    2392:	66 1f       	adc	r22, r22
    2394:	77 1f       	adc	r23, r23
    2396:	88 1f       	adc	r24, r24
    2398:	99 1f       	adc	r25, r25
    239a:	1a 94       	dec	r1
    239c:	69 f7       	brne	.-38     	; 0x2378 <__udivmodsi4_loop>
    239e:	60 95       	com	r22
    23a0:	70 95       	com	r23
    23a2:	80 95       	com	r24
    23a4:	90 95       	com	r25
    23a6:	9b 01       	movw	r18, r22
    23a8:	ac 01       	movw	r20, r24
    23aa:	bd 01       	movw	r22, r26
    23ac:	cf 01       	movw	r24, r30
    23ae:	08 95       	ret

000023b0 <do_rand>:
    23b0:	8f 92       	push	r8
    23b2:	9f 92       	push	r9
    23b4:	af 92       	push	r10
    23b6:	bf 92       	push	r11
    23b8:	cf 92       	push	r12
    23ba:	df 92       	push	r13
    23bc:	ef 92       	push	r14
    23be:	ff 92       	push	r15
    23c0:	cf 93       	push	r28
    23c2:	df 93       	push	r29
    23c4:	ec 01       	movw	r28, r24
    23c6:	88 81       	ld	r24, Y
    23c8:	99 81       	ldd	r25, Y+1	; 0x01
    23ca:	aa 81       	ldd	r26, Y+2	; 0x02
    23cc:	bb 81       	ldd	r27, Y+3	; 0x03
    23ce:	00 97       	sbiw	r24, 0x00	; 0
    23d0:	a1 05       	cpc	r26, r1
    23d2:	b1 05       	cpc	r27, r1
    23d4:	21 f4       	brne	.+8      	; 0x23de <do_rand+0x2e>
    23d6:	84 e2       	ldi	r24, 0x24	; 36
    23d8:	99 ed       	ldi	r25, 0xD9	; 217
    23da:	ab e5       	ldi	r26, 0x5B	; 91
    23dc:	b7 e0       	ldi	r27, 0x07	; 7
    23de:	bc 01       	movw	r22, r24
    23e0:	cd 01       	movw	r24, r26
    23e2:	2d e1       	ldi	r18, 0x1D	; 29
    23e4:	33 ef       	ldi	r19, 0xF3	; 243
    23e6:	41 e0       	ldi	r20, 0x01	; 1
    23e8:	50 e0       	ldi	r21, 0x00	; 0
    23ea:	0e 94 87 12 	call	0x250e	; 0x250e <__divmodsi4>
    23ee:	49 01       	movw	r8, r18
    23f0:	5a 01       	movw	r10, r20
    23f2:	27 ea       	ldi	r18, 0xA7	; 167
    23f4:	31 e4       	ldi	r19, 0x41	; 65
    23f6:	40 e0       	ldi	r20, 0x00	; 0
    23f8:	50 e0       	ldi	r21, 0x00	; 0
    23fa:	0e 94 83 11 	call	0x2306	; 0x2306 <__mulsi3>
    23fe:	6b 01       	movw	r12, r22
    2400:	7c 01       	movw	r14, r24
    2402:	c5 01       	movw	r24, r10
    2404:	b4 01       	movw	r22, r8
    2406:	2c ee       	ldi	r18, 0xEC	; 236
    2408:	34 ef       	ldi	r19, 0xF4	; 244
    240a:	4f ef       	ldi	r20, 0xFF	; 255
    240c:	5f ef       	ldi	r21, 0xFF	; 255
    240e:	0e 94 83 11 	call	0x2306	; 0x2306 <__mulsi3>
    2412:	dc 01       	movw	r26, r24
    2414:	cb 01       	movw	r24, r22
    2416:	c8 0e       	add	r12, r24
    2418:	d9 1e       	adc	r13, r25
    241a:	ea 1e       	adc	r14, r26
    241c:	fb 1e       	adc	r15, r27
    241e:	f7 fe       	sbrs	r15, 7
    2420:	08 c0       	rjmp	.+16     	; 0x2432 <do_rand+0x82>
    2422:	8f ef       	ldi	r24, 0xFF	; 255
    2424:	9f ef       	ldi	r25, 0xFF	; 255
    2426:	af ef       	ldi	r26, 0xFF	; 255
    2428:	bf e7       	ldi	r27, 0x7F	; 127
    242a:	c8 0e       	add	r12, r24
    242c:	d9 1e       	adc	r13, r25
    242e:	ea 1e       	adc	r14, r26
    2430:	fb 1e       	adc	r15, r27
    2432:	c8 82       	st	Y, r12
    2434:	d9 82       	std	Y+1, r13	; 0x01
    2436:	ea 82       	std	Y+2, r14	; 0x02
    2438:	fb 82       	std	Y+3, r15	; 0x03
    243a:	c6 01       	movw	r24, r12
    243c:	9f 77       	andi	r25, 0x7F	; 127
    243e:	df 91       	pop	r29
    2440:	cf 91       	pop	r28
    2442:	ff 90       	pop	r15
    2444:	ef 90       	pop	r14
    2446:	df 90       	pop	r13
    2448:	cf 90       	pop	r12
    244a:	bf 90       	pop	r11
    244c:	af 90       	pop	r10
    244e:	9f 90       	pop	r9
    2450:	8f 90       	pop	r8
    2452:	08 95       	ret

00002454 <rand_r>:
    2454:	0e 94 d8 11 	call	0x23b0	; 0x23b0 <do_rand>
    2458:	08 95       	ret

0000245a <rand>:
    245a:	81 eb       	ldi	r24, 0xB1	; 177
    245c:	92 e0       	ldi	r25, 0x02	; 2
    245e:	0e 94 d8 11 	call	0x23b0	; 0x23b0 <do_rand>
    2462:	08 95       	ret

00002464 <srand>:
    2464:	a0 e0       	ldi	r26, 0x00	; 0
    2466:	b0 e0       	ldi	r27, 0x00	; 0
    2468:	80 93 b1 02 	sts	0x02B1, r24
    246c:	90 93 b2 02 	sts	0x02B2, r25
    2470:	a0 93 b3 02 	sts	0x02B3, r26
    2474:	b0 93 b4 02 	sts	0x02B4, r27
    2478:	08 95       	ret

0000247a <memcpy>:
    247a:	fb 01       	movw	r30, r22
    247c:	dc 01       	movw	r26, r24
    247e:	02 c0       	rjmp	.+4      	; 0x2484 <memcpy+0xa>
    2480:	01 90       	ld	r0, Z+
    2482:	0d 92       	st	X+, r0
    2484:	41 50       	subi	r20, 0x01	; 1
    2486:	50 40       	sbci	r21, 0x00	; 0
    2488:	d8 f7       	brcc	.-10     	; 0x2480 <memcpy+0x6>
    248a:	08 95       	ret

0000248c <itoa>:
    248c:	fb 01       	movw	r30, r22
    248e:	9f 01       	movw	r18, r30
    2490:	e8 94       	clt
    2492:	42 30       	cpi	r20, 0x02	; 2
    2494:	c4 f0       	brlt	.+48     	; 0x24c6 <itoa+0x3a>
    2496:	45 32       	cpi	r20, 0x25	; 37
    2498:	b4 f4       	brge	.+44     	; 0x24c6 <itoa+0x3a>
    249a:	4a 30       	cpi	r20, 0x0A	; 10
    249c:	29 f4       	brne	.+10     	; 0x24a8 <itoa+0x1c>
    249e:	97 fb       	bst	r25, 7
    24a0:	1e f4       	brtc	.+6      	; 0x24a8 <itoa+0x1c>
    24a2:	90 95       	com	r25
    24a4:	81 95       	neg	r24
    24a6:	9f 4f       	sbci	r25, 0xFF	; 255
    24a8:	64 2f       	mov	r22, r20
    24aa:	77 27       	eor	r23, r23
    24ac:	0e 94 a2 11 	call	0x2344	; 0x2344 <__udivmodhi4>
    24b0:	80 5d       	subi	r24, 0xD0	; 208
    24b2:	8a 33       	cpi	r24, 0x3A	; 58
    24b4:	0c f0       	brlt	.+2      	; 0x24b8 <itoa+0x2c>
    24b6:	89 5d       	subi	r24, 0xD9	; 217
    24b8:	81 93       	st	Z+, r24
    24ba:	cb 01       	movw	r24, r22
    24bc:	00 97       	sbiw	r24, 0x00	; 0
    24be:	a1 f7       	brne	.-24     	; 0x24a8 <itoa+0x1c>
    24c0:	16 f4       	brtc	.+4      	; 0x24c6 <itoa+0x3a>
    24c2:	5d e2       	ldi	r21, 0x2D	; 45
    24c4:	51 93       	st	Z+, r21
    24c6:	10 82       	st	Z, r1
    24c8:	c9 01       	movw	r24, r18
    24ca:	0c 94 77 12 	jmp	0x24ee	; 0x24ee <strrev>

000024ce <__eerd_block_m128rfa1>:
    24ce:	dc 01       	movw	r26, r24
    24d0:	cb 01       	movw	r24, r22

000024d2 <__eerd_blraw_m128rfa1>:
    24d2:	fc 01       	movw	r30, r24
    24d4:	f9 99       	sbic	0x1f, 1	; 31
    24d6:	fe cf       	rjmp	.-4      	; 0x24d4 <__eerd_blraw_m128rfa1+0x2>
    24d8:	06 c0       	rjmp	.+12     	; 0x24e6 <__eerd_blraw_m128rfa1+0x14>
    24da:	f2 bd       	out	0x22, r31	; 34
    24dc:	e1 bd       	out	0x21, r30	; 33
    24de:	f8 9a       	sbi	0x1f, 0	; 31
    24e0:	31 96       	adiw	r30, 0x01	; 1
    24e2:	00 b4       	in	r0, 0x20	; 32
    24e4:	0d 92       	st	X+, r0
    24e6:	41 50       	subi	r20, 0x01	; 1
    24e8:	50 40       	sbci	r21, 0x00	; 0
    24ea:	b8 f7       	brcc	.-18     	; 0x24da <__eerd_blraw_m128rfa1+0x8>
    24ec:	08 95       	ret

000024ee <strrev>:
    24ee:	dc 01       	movw	r26, r24
    24f0:	fc 01       	movw	r30, r24
    24f2:	67 2f       	mov	r22, r23
    24f4:	71 91       	ld	r23, Z+
    24f6:	77 23       	and	r23, r23
    24f8:	e1 f7       	brne	.-8      	; 0x24f2 <strrev+0x4>
    24fa:	32 97       	sbiw	r30, 0x02	; 2
    24fc:	04 c0       	rjmp	.+8      	; 0x2506 <strrev+0x18>
    24fe:	7c 91       	ld	r23, X
    2500:	6d 93       	st	X+, r22
    2502:	70 83       	st	Z, r23
    2504:	62 91       	ld	r22, -Z
    2506:	ae 17       	cp	r26, r30
    2508:	bf 07       	cpc	r27, r31
    250a:	c8 f3       	brcs	.-14     	; 0x24fe <strrev+0x10>
    250c:	08 95       	ret

0000250e <__divmodsi4>:
    250e:	97 fb       	bst	r25, 7
    2510:	09 2e       	mov	r0, r25
    2512:	05 26       	eor	r0, r21
    2514:	0e d0       	rcall	.+28     	; 0x2532 <__divmodsi4_neg1>
    2516:	57 fd       	sbrc	r21, 7
    2518:	04 d0       	rcall	.+8      	; 0x2522 <__divmodsi4_neg2>
    251a:	28 df       	rcall	.-432    	; 0x236c <__udivmodsi4>
    251c:	0a d0       	rcall	.+20     	; 0x2532 <__divmodsi4_neg1>
    251e:	00 1c       	adc	r0, r0
    2520:	38 f4       	brcc	.+14     	; 0x2530 <__divmodsi4_exit>

00002522 <__divmodsi4_neg2>:
    2522:	50 95       	com	r21
    2524:	40 95       	com	r20
    2526:	30 95       	com	r19
    2528:	21 95       	neg	r18
    252a:	3f 4f       	sbci	r19, 0xFF	; 255
    252c:	4f 4f       	sbci	r20, 0xFF	; 255
    252e:	5f 4f       	sbci	r21, 0xFF	; 255

00002530 <__divmodsi4_exit>:
    2530:	08 95       	ret

00002532 <__divmodsi4_neg1>:
    2532:	f6 f7       	brtc	.-4      	; 0x2530 <__divmodsi4_exit>
    2534:	90 95       	com	r25
    2536:	80 95       	com	r24
    2538:	70 95       	com	r23
    253a:	61 95       	neg	r22
    253c:	7f 4f       	sbci	r23, 0xFF	; 255
    253e:	8f 4f       	sbci	r24, 0xFF	; 255
    2540:	9f 4f       	sbci	r25, 0xFF	; 255
    2542:	08 95       	ret

00002544 <_exit>:
    2544:	f8 94       	cli

00002546 <__stop_program>:
    2546:	ff cf       	rjmp	.-2      	; 0x2546 <__stop_program>
